
quadcopter_project.elf:     file format elf32-littlearm

Sections:
Idx Name          Size      VMA       LMA       File off  Algn
  0 .isr_vector   000001d0  08000000  08000000  00010000  2**0
                  CONTENTS, ALLOC, LOAD, READONLY, DATA
  1 .text         0000225c  080001d0  080001d0  000101d0  2**2
                  CONTENTS, ALLOC, LOAD, READONLY, CODE
  2 .rodata       00000070  0800242c  0800242c  0001242c  2**2
                  CONTENTS, ALLOC, LOAD, READONLY, DATA
  3 .init_array   00000004  0800249c  0800249c  0001249c  2**2
                  CONTENTS, ALLOC, LOAD, DATA
  4 .fini_array   00000004  080024a0  080024a0  000124a0  2**2
                  CONTENTS, ALLOC, LOAD, DATA
  5 .data         00000014  20000000  080024a4  00020000  2**2
                  CONTENTS, ALLOC, LOAD, DATA
  6 .bss          0000004c  20000014  080024b8  00020014  2**2
                  ALLOC
  7 ._user_heap_stack 00000080  20000060  080024b8  00020060  2**0
                  ALLOC
  8 .ARM.attributes 00000029  00000000  00000000  00020014  2**0
                  CONTENTS, READONLY
  9 .debug_info   0000643c  00000000  00000000  0002003d  2**0
                  CONTENTS, READONLY, DEBUGGING
 10 .debug_abbrev 000012a8  00000000  00000000  00026479  2**0
                  CONTENTS, READONLY, DEBUGGING
 11 .debug_aranges 00000910  00000000  00000000  00027728  2**3
                  CONTENTS, READONLY, DEBUGGING
 12 .debug_ranges 00000838  00000000  00000000  00028038  2**3
                  CONTENTS, READONLY, DEBUGGING
 13 .debug_line   000031f1  00000000  00000000  00028870  2**0
                  CONTENTS, READONLY, DEBUGGING
 14 .debug_str    000027cf  00000000  00000000  0002ba61  2**0
                  CONTENTS, READONLY, DEBUGGING
 15 .comment      0000007c  00000000  00000000  0002e230  2**0
                  CONTENTS, READONLY
 16 .debug_frame  000026e0  00000000  00000000  0002e2ac  2**2
                  CONTENTS, READONLY, DEBUGGING
 17 .stabstr      0000003f  00000000  00000000  0003098c  2**0
                  CONTENTS, READONLY, DEBUGGING

Disassembly of section .text:

080001d0 <__do_global_dtors_aux>:
 80001d0:	b510      	push	{r4, lr}
 80001d2:	4c05      	ldr	r4, [pc, #20]	; (80001e8 <__do_global_dtors_aux+0x18>)
 80001d4:	7823      	ldrb	r3, [r4, #0]
 80001d6:	b933      	cbnz	r3, 80001e6 <__do_global_dtors_aux+0x16>
 80001d8:	4b04      	ldr	r3, [pc, #16]	; (80001ec <__do_global_dtors_aux+0x1c>)
 80001da:	b113      	cbz	r3, 80001e2 <__do_global_dtors_aux+0x12>
 80001dc:	4804      	ldr	r0, [pc, #16]	; (80001f0 <__do_global_dtors_aux+0x20>)
 80001de:	f3af 8000 	nop.w
 80001e2:	2301      	movs	r3, #1
 80001e4:	7023      	strb	r3, [r4, #0]
 80001e6:	bd10      	pop	{r4, pc}
 80001e8:	20000014 	.word	0x20000014
 80001ec:	00000000 	.word	0x00000000
 80001f0:	08002414 	.word	0x08002414

080001f4 <frame_dummy>:
 80001f4:	b508      	push	{r3, lr}
 80001f6:	4b03      	ldr	r3, [pc, #12]	; (8000204 <frame_dummy+0x10>)
 80001f8:	b11b      	cbz	r3, 8000202 <frame_dummy+0xe>
 80001fa:	4903      	ldr	r1, [pc, #12]	; (8000208 <frame_dummy+0x14>)
 80001fc:	4803      	ldr	r0, [pc, #12]	; (800020c <frame_dummy+0x18>)
 80001fe:	f3af 8000 	nop.w
 8000202:	bd08      	pop	{r3, pc}
 8000204:	00000000 	.word	0x00000000
 8000208:	20000018 	.word	0x20000018
 800020c:	08002414 	.word	0x08002414

08000210 <__aeabi_frsub>:
 8000210:	f080 4000 	eor.w	r0, r0, #2147483648	; 0x80000000
 8000214:	e002      	b.n	800021c <__addsf3>
 8000216:	bf00      	nop

08000218 <__aeabi_fsub>:
 8000218:	f081 4100 	eor.w	r1, r1, #2147483648	; 0x80000000

0800021c <__addsf3>:
 800021c:	0042      	lsls	r2, r0, #1
 800021e:	bf1f      	itttt	ne
 8000220:	ea5f 0341 	movsne.w	r3, r1, lsl #1
 8000224:	ea92 0f03 	teqne	r2, r3
 8000228:	ea7f 6c22 	mvnsne.w	ip, r2, asr #24
 800022c:	ea7f 6c23 	mvnsne.w	ip, r3, asr #24
 8000230:	d06a      	beq.n	8000308 <__addsf3+0xec>
 8000232:	ea4f 6212 	mov.w	r2, r2, lsr #24
 8000236:	ebd2 6313 	rsbs	r3, r2, r3, lsr #24
 800023a:	bfc1      	itttt	gt
 800023c:	18d2      	addgt	r2, r2, r3
 800023e:	4041      	eorgt	r1, r0
 8000240:	4048      	eorgt	r0, r1
 8000242:	4041      	eorgt	r1, r0
 8000244:	bfb8      	it	lt
 8000246:	425b      	neglt	r3, r3
 8000248:	2b19      	cmp	r3, #25
 800024a:	bf88      	it	hi
 800024c:	4770      	bxhi	lr
 800024e:	f010 4f00 	tst.w	r0, #2147483648	; 0x80000000
 8000252:	f440 0000 	orr.w	r0, r0, #8388608	; 0x800000
 8000256:	f020 407f 	bic.w	r0, r0, #4278190080	; 0xff000000
 800025a:	bf18      	it	ne
 800025c:	4240      	negne	r0, r0
 800025e:	f011 4f00 	tst.w	r1, #2147483648	; 0x80000000
 8000262:	f441 0100 	orr.w	r1, r1, #8388608	; 0x800000
 8000266:	f021 417f 	bic.w	r1, r1, #4278190080	; 0xff000000
 800026a:	bf18      	it	ne
 800026c:	4249      	negne	r1, r1
 800026e:	ea92 0f03 	teq	r2, r3
 8000272:	d03f      	beq.n	80002f4 <__addsf3+0xd8>
 8000274:	f1a2 0201 	sub.w	r2, r2, #1
 8000278:	fa41 fc03 	asr.w	ip, r1, r3
 800027c:	eb10 000c 	adds.w	r0, r0, ip
 8000280:	f1c3 0320 	rsb	r3, r3, #32
 8000284:	fa01 f103 	lsl.w	r1, r1, r3
 8000288:	f000 4300 	and.w	r3, r0, #2147483648	; 0x80000000
 800028c:	d502      	bpl.n	8000294 <__addsf3+0x78>
 800028e:	4249      	negs	r1, r1
 8000290:	eb60 0040 	sbc.w	r0, r0, r0, lsl #1
 8000294:	f5b0 0f00 	cmp.w	r0, #8388608	; 0x800000
 8000298:	d313      	bcc.n	80002c2 <__addsf3+0xa6>
 800029a:	f1b0 7f80 	cmp.w	r0, #16777216	; 0x1000000
 800029e:	d306      	bcc.n	80002ae <__addsf3+0x92>
 80002a0:	0840      	lsrs	r0, r0, #1
 80002a2:	ea4f 0131 	mov.w	r1, r1, rrx
 80002a6:	f102 0201 	add.w	r2, r2, #1
 80002aa:	2afe      	cmp	r2, #254	; 0xfe
 80002ac:	d251      	bcs.n	8000352 <__addsf3+0x136>
 80002ae:	f1b1 4f00 	cmp.w	r1, #2147483648	; 0x80000000
 80002b2:	eb40 50c2 	adc.w	r0, r0, r2, lsl #23
 80002b6:	bf08      	it	eq
 80002b8:	f020 0001 	biceq.w	r0, r0, #1
 80002bc:	ea40 0003 	orr.w	r0, r0, r3
 80002c0:	4770      	bx	lr
 80002c2:	0049      	lsls	r1, r1, #1
 80002c4:	eb40 0000 	adc.w	r0, r0, r0
 80002c8:	f410 0f00 	tst.w	r0, #8388608	; 0x800000
 80002cc:	f1a2 0201 	sub.w	r2, r2, #1
 80002d0:	d1ed      	bne.n	80002ae <__addsf3+0x92>
 80002d2:	fab0 fc80 	clz	ip, r0
 80002d6:	f1ac 0c08 	sub.w	ip, ip, #8
 80002da:	ebb2 020c 	subs.w	r2, r2, ip
 80002de:	fa00 f00c 	lsl.w	r0, r0, ip
 80002e2:	bfaa      	itet	ge
 80002e4:	eb00 50c2 	addge.w	r0, r0, r2, lsl #23
 80002e8:	4252      	neglt	r2, r2
 80002ea:	4318      	orrge	r0, r3
 80002ec:	bfbc      	itt	lt
 80002ee:	40d0      	lsrlt	r0, r2
 80002f0:	4318      	orrlt	r0, r3
 80002f2:	4770      	bx	lr
 80002f4:	f092 0f00 	teq	r2, #0
 80002f8:	f481 0100 	eor.w	r1, r1, #8388608	; 0x800000
 80002fc:	bf06      	itte	eq
 80002fe:	f480 0000 	eoreq.w	r0, r0, #8388608	; 0x800000
 8000302:	3201      	addeq	r2, #1
 8000304:	3b01      	subne	r3, #1
 8000306:	e7b5      	b.n	8000274 <__addsf3+0x58>
 8000308:	ea4f 0341 	mov.w	r3, r1, lsl #1
 800030c:	ea7f 6c22 	mvns.w	ip, r2, asr #24
 8000310:	bf18      	it	ne
 8000312:	ea7f 6c23 	mvnsne.w	ip, r3, asr #24
 8000316:	d021      	beq.n	800035c <__addsf3+0x140>
 8000318:	ea92 0f03 	teq	r2, r3
 800031c:	d004      	beq.n	8000328 <__addsf3+0x10c>
 800031e:	f092 0f00 	teq	r2, #0
 8000322:	bf08      	it	eq
 8000324:	4608      	moveq	r0, r1
 8000326:	4770      	bx	lr
 8000328:	ea90 0f01 	teq	r0, r1
 800032c:	bf1c      	itt	ne
 800032e:	2000      	movne	r0, #0
 8000330:	4770      	bxne	lr
 8000332:	f012 4f7f 	tst.w	r2, #4278190080	; 0xff000000
 8000336:	d104      	bne.n	8000342 <__addsf3+0x126>
 8000338:	0040      	lsls	r0, r0, #1
 800033a:	bf28      	it	cs
 800033c:	f040 4000 	orrcs.w	r0, r0, #2147483648	; 0x80000000
 8000340:	4770      	bx	lr
 8000342:	f112 7200 	adds.w	r2, r2, #33554432	; 0x2000000
 8000346:	bf3c      	itt	cc
 8000348:	f500 0000 	addcc.w	r0, r0, #8388608	; 0x800000
 800034c:	4770      	bxcc	lr
 800034e:	f000 4300 	and.w	r3, r0, #2147483648	; 0x80000000
 8000352:	f043 40fe 	orr.w	r0, r3, #2130706432	; 0x7f000000
 8000356:	f440 0000 	orr.w	r0, r0, #8388608	; 0x800000
 800035a:	4770      	bx	lr
 800035c:	ea7f 6222 	mvns.w	r2, r2, asr #24
 8000360:	bf16      	itet	ne
 8000362:	4608      	movne	r0, r1
 8000364:	ea7f 6323 	mvnseq.w	r3, r3, asr #24
 8000368:	4601      	movne	r1, r0
 800036a:	0242      	lsls	r2, r0, #9
 800036c:	bf06      	itte	eq
 800036e:	ea5f 2341 	movseq.w	r3, r1, lsl #9
 8000372:	ea90 0f01 	teqeq	r0, r1
 8000376:	f440 0080 	orrne.w	r0, r0, #4194304	; 0x400000
 800037a:	4770      	bx	lr

0800037c <__aeabi_ui2f>:
 800037c:	f04f 0300 	mov.w	r3, #0
 8000380:	e004      	b.n	800038c <__aeabi_i2f+0x8>
 8000382:	bf00      	nop

08000384 <__aeabi_i2f>:
 8000384:	f010 4300 	ands.w	r3, r0, #2147483648	; 0x80000000
 8000388:	bf48      	it	mi
 800038a:	4240      	negmi	r0, r0
 800038c:	ea5f 0c00 	movs.w	ip, r0
 8000390:	bf08      	it	eq
 8000392:	4770      	bxeq	lr
 8000394:	f043 4396 	orr.w	r3, r3, #1258291200	; 0x4b000000
 8000398:	4601      	mov	r1, r0
 800039a:	f04f 0000 	mov.w	r0, #0
 800039e:	e01c      	b.n	80003da <__aeabi_l2f+0x2a>

080003a0 <__aeabi_ul2f>:
 80003a0:	ea50 0201 	orrs.w	r2, r0, r1
 80003a4:	bf08      	it	eq
 80003a6:	4770      	bxeq	lr
 80003a8:	f04f 0300 	mov.w	r3, #0
 80003ac:	e00a      	b.n	80003c4 <__aeabi_l2f+0x14>
 80003ae:	bf00      	nop

080003b0 <__aeabi_l2f>:
 80003b0:	ea50 0201 	orrs.w	r2, r0, r1
 80003b4:	bf08      	it	eq
 80003b6:	4770      	bxeq	lr
 80003b8:	f011 4300 	ands.w	r3, r1, #2147483648	; 0x80000000
 80003bc:	d502      	bpl.n	80003c4 <__aeabi_l2f+0x14>
 80003be:	4240      	negs	r0, r0
 80003c0:	eb61 0141 	sbc.w	r1, r1, r1, lsl #1
 80003c4:	ea5f 0c01 	movs.w	ip, r1
 80003c8:	bf02      	ittt	eq
 80003ca:	4684      	moveq	ip, r0
 80003cc:	4601      	moveq	r1, r0
 80003ce:	2000      	moveq	r0, #0
 80003d0:	f043 43b6 	orr.w	r3, r3, #1526726656	; 0x5b000000
 80003d4:	bf08      	it	eq
 80003d6:	f1a3 5380 	subeq.w	r3, r3, #268435456	; 0x10000000
 80003da:	f5a3 0300 	sub.w	r3, r3, #8388608	; 0x800000
 80003de:	fabc f28c 	clz	r2, ip
 80003e2:	3a08      	subs	r2, #8
 80003e4:	eba3 53c2 	sub.w	r3, r3, r2, lsl #23
 80003e8:	db10      	blt.n	800040c <__aeabi_l2f+0x5c>
 80003ea:	fa01 fc02 	lsl.w	ip, r1, r2
 80003ee:	4463      	add	r3, ip
 80003f0:	fa00 fc02 	lsl.w	ip, r0, r2
 80003f4:	f1c2 0220 	rsb	r2, r2, #32
 80003f8:	f1bc 4f00 	cmp.w	ip, #2147483648	; 0x80000000
 80003fc:	fa20 f202 	lsr.w	r2, r0, r2
 8000400:	eb43 0002 	adc.w	r0, r3, r2
 8000404:	bf08      	it	eq
 8000406:	f020 0001 	biceq.w	r0, r0, #1
 800040a:	4770      	bx	lr
 800040c:	f102 0220 	add.w	r2, r2, #32
 8000410:	fa01 fc02 	lsl.w	ip, r1, r2
 8000414:	f1c2 0220 	rsb	r2, r2, #32
 8000418:	ea50 004c 	orrs.w	r0, r0, ip, lsl #1
 800041c:	fa21 f202 	lsr.w	r2, r1, r2
 8000420:	eb43 0002 	adc.w	r0, r3, r2
 8000424:	bf08      	it	eq
 8000426:	ea20 70dc 	biceq.w	r0, r0, ip, lsr #31
 800042a:	4770      	bx	lr

0800042c <__aeabi_fmul>:
 800042c:	f04f 0cff 	mov.w	ip, #255	; 0xff
 8000430:	ea1c 52d0 	ands.w	r2, ip, r0, lsr #23
 8000434:	bf1e      	ittt	ne
 8000436:	ea1c 53d1 	andsne.w	r3, ip, r1, lsr #23
 800043a:	ea92 0f0c 	teqne	r2, ip
 800043e:	ea93 0f0c 	teqne	r3, ip
 8000442:	d06f      	beq.n	8000524 <__aeabi_fmul+0xf8>
 8000444:	441a      	add	r2, r3
 8000446:	ea80 0c01 	eor.w	ip, r0, r1
 800044a:	0240      	lsls	r0, r0, #9
 800044c:	bf18      	it	ne
 800044e:	ea5f 2141 	movsne.w	r1, r1, lsl #9
 8000452:	d01e      	beq.n	8000492 <__aeabi_fmul+0x66>
 8000454:	f04f 6300 	mov.w	r3, #134217728	; 0x8000000
 8000458:	ea43 1050 	orr.w	r0, r3, r0, lsr #5
 800045c:	ea43 1151 	orr.w	r1, r3, r1, lsr #5
 8000460:	fba0 3101 	umull	r3, r1, r0, r1
 8000464:	f00c 4000 	and.w	r0, ip, #2147483648	; 0x80000000
 8000468:	f5b1 0f00 	cmp.w	r1, #8388608	; 0x800000
 800046c:	bf3e      	ittt	cc
 800046e:	0049      	lslcc	r1, r1, #1
 8000470:	ea41 71d3 	orrcc.w	r1, r1, r3, lsr #31
 8000474:	005b      	lslcc	r3, r3, #1
 8000476:	ea40 0001 	orr.w	r0, r0, r1
 800047a:	f162 027f 	sbc.w	r2, r2, #127	; 0x7f
 800047e:	2afd      	cmp	r2, #253	; 0xfd
 8000480:	d81d      	bhi.n	80004be <__aeabi_fmul+0x92>
 8000482:	f1b3 4f00 	cmp.w	r3, #2147483648	; 0x80000000
 8000486:	eb40 50c2 	adc.w	r0, r0, r2, lsl #23
 800048a:	bf08      	it	eq
 800048c:	f020 0001 	biceq.w	r0, r0, #1
 8000490:	4770      	bx	lr
 8000492:	f090 0f00 	teq	r0, #0
 8000496:	f00c 4c00 	and.w	ip, ip, #2147483648	; 0x80000000
 800049a:	bf08      	it	eq
 800049c:	0249      	lsleq	r1, r1, #9
 800049e:	ea4c 2050 	orr.w	r0, ip, r0, lsr #9
 80004a2:	ea40 2051 	orr.w	r0, r0, r1, lsr #9
 80004a6:	3a7f      	subs	r2, #127	; 0x7f
 80004a8:	bfc2      	ittt	gt
 80004aa:	f1d2 03ff 	rsbsgt	r3, r2, #255	; 0xff
 80004ae:	ea40 50c2 	orrgt.w	r0, r0, r2, lsl #23
 80004b2:	4770      	bxgt	lr
 80004b4:	f440 0000 	orr.w	r0, r0, #8388608	; 0x800000
 80004b8:	f04f 0300 	mov.w	r3, #0
 80004bc:	3a01      	subs	r2, #1
 80004be:	dc5d      	bgt.n	800057c <__aeabi_fmul+0x150>
 80004c0:	f112 0f19 	cmn.w	r2, #25
 80004c4:	bfdc      	itt	le
 80004c6:	f000 4000 	andle.w	r0, r0, #2147483648	; 0x80000000
 80004ca:	4770      	bxle	lr
 80004cc:	f1c2 0200 	rsb	r2, r2, #0
 80004d0:	0041      	lsls	r1, r0, #1
 80004d2:	fa21 f102 	lsr.w	r1, r1, r2
 80004d6:	f1c2 0220 	rsb	r2, r2, #32
 80004da:	fa00 fc02 	lsl.w	ip, r0, r2
 80004de:	ea5f 0031 	movs.w	r0, r1, rrx
 80004e2:	f140 0000 	adc.w	r0, r0, #0
 80004e6:	ea53 034c 	orrs.w	r3, r3, ip, lsl #1
 80004ea:	bf08      	it	eq
 80004ec:	ea20 70dc 	biceq.w	r0, r0, ip, lsr #31
 80004f0:	4770      	bx	lr
 80004f2:	f092 0f00 	teq	r2, #0
 80004f6:	f000 4c00 	and.w	ip, r0, #2147483648	; 0x80000000
 80004fa:	bf02      	ittt	eq
 80004fc:	0040      	lsleq	r0, r0, #1
 80004fe:	f410 0f00 	tsteq.w	r0, #8388608	; 0x800000
 8000502:	3a01      	subeq	r2, #1
 8000504:	d0f9      	beq.n	80004fa <__aeabi_fmul+0xce>
 8000506:	ea40 000c 	orr.w	r0, r0, ip
 800050a:	f093 0f00 	teq	r3, #0
 800050e:	f001 4c00 	and.w	ip, r1, #2147483648	; 0x80000000
 8000512:	bf02      	ittt	eq
 8000514:	0049      	lsleq	r1, r1, #1
 8000516:	f411 0f00 	tsteq.w	r1, #8388608	; 0x800000
 800051a:	3b01      	subeq	r3, #1
 800051c:	d0f9      	beq.n	8000512 <__aeabi_fmul+0xe6>
 800051e:	ea41 010c 	orr.w	r1, r1, ip
 8000522:	e78f      	b.n	8000444 <__aeabi_fmul+0x18>
 8000524:	ea0c 53d1 	and.w	r3, ip, r1, lsr #23
 8000528:	ea92 0f0c 	teq	r2, ip
 800052c:	bf18      	it	ne
 800052e:	ea93 0f0c 	teqne	r3, ip
 8000532:	d00a      	beq.n	800054a <__aeabi_fmul+0x11e>
 8000534:	f030 4c00 	bics.w	ip, r0, #2147483648	; 0x80000000
 8000538:	bf18      	it	ne
 800053a:	f031 4c00 	bicsne.w	ip, r1, #2147483648	; 0x80000000
 800053e:	d1d8      	bne.n	80004f2 <__aeabi_fmul+0xc6>
 8000540:	ea80 0001 	eor.w	r0, r0, r1
 8000544:	f000 4000 	and.w	r0, r0, #2147483648	; 0x80000000
 8000548:	4770      	bx	lr
 800054a:	f090 0f00 	teq	r0, #0
 800054e:	bf17      	itett	ne
 8000550:	f090 4f00 	teqne	r0, #2147483648	; 0x80000000
 8000554:	4608      	moveq	r0, r1
 8000556:	f091 0f00 	teqne	r1, #0
 800055a:	f091 4f00 	teqne	r1, #2147483648	; 0x80000000
 800055e:	d014      	beq.n	800058a <__aeabi_fmul+0x15e>
 8000560:	ea92 0f0c 	teq	r2, ip
 8000564:	d101      	bne.n	800056a <__aeabi_fmul+0x13e>
 8000566:	0242      	lsls	r2, r0, #9
 8000568:	d10f      	bne.n	800058a <__aeabi_fmul+0x15e>
 800056a:	ea93 0f0c 	teq	r3, ip
 800056e:	d103      	bne.n	8000578 <__aeabi_fmul+0x14c>
 8000570:	024b      	lsls	r3, r1, #9
 8000572:	bf18      	it	ne
 8000574:	4608      	movne	r0, r1
 8000576:	d108      	bne.n	800058a <__aeabi_fmul+0x15e>
 8000578:	ea80 0001 	eor.w	r0, r0, r1
 800057c:	f000 4000 	and.w	r0, r0, #2147483648	; 0x80000000
 8000580:	f040 40fe 	orr.w	r0, r0, #2130706432	; 0x7f000000
 8000584:	f440 0000 	orr.w	r0, r0, #8388608	; 0x800000
 8000588:	4770      	bx	lr
 800058a:	f040 40fe 	orr.w	r0, r0, #2130706432	; 0x7f000000
 800058e:	f440 0040 	orr.w	r0, r0, #12582912	; 0xc00000
 8000592:	4770      	bx	lr

08000594 <__aeabi_fdiv>:
 8000594:	f04f 0cff 	mov.w	ip, #255	; 0xff
 8000598:	ea1c 52d0 	ands.w	r2, ip, r0, lsr #23
 800059c:	bf1e      	ittt	ne
 800059e:	ea1c 53d1 	andsne.w	r3, ip, r1, lsr #23
 80005a2:	ea92 0f0c 	teqne	r2, ip
 80005a6:	ea93 0f0c 	teqne	r3, ip
 80005aa:	d069      	beq.n	8000680 <__aeabi_fdiv+0xec>
 80005ac:	eba2 0203 	sub.w	r2, r2, r3
 80005b0:	ea80 0c01 	eor.w	ip, r0, r1
 80005b4:	0249      	lsls	r1, r1, #9
 80005b6:	ea4f 2040 	mov.w	r0, r0, lsl #9
 80005ba:	d037      	beq.n	800062c <__aeabi_fdiv+0x98>
 80005bc:	f04f 5380 	mov.w	r3, #268435456	; 0x10000000
 80005c0:	ea43 1111 	orr.w	r1, r3, r1, lsr #4
 80005c4:	ea43 1310 	orr.w	r3, r3, r0, lsr #4
 80005c8:	f00c 4000 	and.w	r0, ip, #2147483648	; 0x80000000
 80005cc:	428b      	cmp	r3, r1
 80005ce:	bf38      	it	cc
 80005d0:	005b      	lslcc	r3, r3, #1
 80005d2:	f142 027d 	adc.w	r2, r2, #125	; 0x7d
 80005d6:	f44f 0c00 	mov.w	ip, #8388608	; 0x800000
 80005da:	428b      	cmp	r3, r1
 80005dc:	bf24      	itt	cs
 80005de:	1a5b      	subcs	r3, r3, r1
 80005e0:	ea40 000c 	orrcs.w	r0, r0, ip
 80005e4:	ebb3 0f51 	cmp.w	r3, r1, lsr #1
 80005e8:	bf24      	itt	cs
 80005ea:	eba3 0351 	subcs.w	r3, r3, r1, lsr #1
 80005ee:	ea40 005c 	orrcs.w	r0, r0, ip, lsr #1
 80005f2:	ebb3 0f91 	cmp.w	r3, r1, lsr #2
 80005f6:	bf24      	itt	cs
 80005f8:	eba3 0391 	subcs.w	r3, r3, r1, lsr #2
 80005fc:	ea40 009c 	orrcs.w	r0, r0, ip, lsr #2
 8000600:	ebb3 0fd1 	cmp.w	r3, r1, lsr #3
 8000604:	bf24      	itt	cs
 8000606:	eba3 03d1 	subcs.w	r3, r3, r1, lsr #3
 800060a:	ea40 00dc 	orrcs.w	r0, r0, ip, lsr #3
 800060e:	011b      	lsls	r3, r3, #4
 8000610:	bf18      	it	ne
 8000612:	ea5f 1c1c 	movsne.w	ip, ip, lsr #4
 8000616:	d1e0      	bne.n	80005da <__aeabi_fdiv+0x46>
 8000618:	2afd      	cmp	r2, #253	; 0xfd
 800061a:	f63f af50 	bhi.w	80004be <__aeabi_fmul+0x92>
 800061e:	428b      	cmp	r3, r1
 8000620:	eb40 50c2 	adc.w	r0, r0, r2, lsl #23
 8000624:	bf08      	it	eq
 8000626:	f020 0001 	biceq.w	r0, r0, #1
 800062a:	4770      	bx	lr
 800062c:	f00c 4c00 	and.w	ip, ip, #2147483648	; 0x80000000
 8000630:	ea4c 2050 	orr.w	r0, ip, r0, lsr #9
 8000634:	327f      	adds	r2, #127	; 0x7f
 8000636:	bfc2      	ittt	gt
 8000638:	f1d2 03ff 	rsbsgt	r3, r2, #255	; 0xff
 800063c:	ea40 50c2 	orrgt.w	r0, r0, r2, lsl #23
 8000640:	4770      	bxgt	lr
 8000642:	f440 0000 	orr.w	r0, r0, #8388608	; 0x800000
 8000646:	f04f 0300 	mov.w	r3, #0
 800064a:	3a01      	subs	r2, #1
 800064c:	e737      	b.n	80004be <__aeabi_fmul+0x92>
 800064e:	f092 0f00 	teq	r2, #0
 8000652:	f000 4c00 	and.w	ip, r0, #2147483648	; 0x80000000
 8000656:	bf02      	ittt	eq
 8000658:	0040      	lsleq	r0, r0, #1
 800065a:	f410 0f00 	tsteq.w	r0, #8388608	; 0x800000
 800065e:	3a01      	subeq	r2, #1
 8000660:	d0f9      	beq.n	8000656 <__aeabi_fdiv+0xc2>
 8000662:	ea40 000c 	orr.w	r0, r0, ip
 8000666:	f093 0f00 	teq	r3, #0
 800066a:	f001 4c00 	and.w	ip, r1, #2147483648	; 0x80000000
 800066e:	bf02      	ittt	eq
 8000670:	0049      	lsleq	r1, r1, #1
 8000672:	f411 0f00 	tsteq.w	r1, #8388608	; 0x800000
 8000676:	3b01      	subeq	r3, #1
 8000678:	d0f9      	beq.n	800066e <__aeabi_fdiv+0xda>
 800067a:	ea41 010c 	orr.w	r1, r1, ip
 800067e:	e795      	b.n	80005ac <__aeabi_fdiv+0x18>
 8000680:	ea0c 53d1 	and.w	r3, ip, r1, lsr #23
 8000684:	ea92 0f0c 	teq	r2, ip
 8000688:	d108      	bne.n	800069c <__aeabi_fdiv+0x108>
 800068a:	0242      	lsls	r2, r0, #9
 800068c:	f47f af7d 	bne.w	800058a <__aeabi_fmul+0x15e>
 8000690:	ea93 0f0c 	teq	r3, ip
 8000694:	f47f af70 	bne.w	8000578 <__aeabi_fmul+0x14c>
 8000698:	4608      	mov	r0, r1
 800069a:	e776      	b.n	800058a <__aeabi_fmul+0x15e>
 800069c:	ea93 0f0c 	teq	r3, ip
 80006a0:	d104      	bne.n	80006ac <__aeabi_fdiv+0x118>
 80006a2:	024b      	lsls	r3, r1, #9
 80006a4:	f43f af4c 	beq.w	8000540 <__aeabi_fmul+0x114>
 80006a8:	4608      	mov	r0, r1
 80006aa:	e76e      	b.n	800058a <__aeabi_fmul+0x15e>
 80006ac:	f030 4c00 	bics.w	ip, r0, #2147483648	; 0x80000000
 80006b0:	bf18      	it	ne
 80006b2:	f031 4c00 	bicsne.w	ip, r1, #2147483648	; 0x80000000
 80006b6:	d1ca      	bne.n	800064e <__aeabi_fdiv+0xba>
 80006b8:	f030 4200 	bics.w	r2, r0, #2147483648	; 0x80000000
 80006bc:	f47f af5c 	bne.w	8000578 <__aeabi_fmul+0x14c>
 80006c0:	f031 4300 	bics.w	r3, r1, #2147483648	; 0x80000000
 80006c4:	f47f af3c 	bne.w	8000540 <__aeabi_fmul+0x114>
 80006c8:	e75f      	b.n	800058a <__aeabi_fmul+0x15e>
 80006ca:	bf00      	nop

080006cc <__aeabi_f2iz>:
 80006cc:	ea4f 0240 	mov.w	r2, r0, lsl #1
 80006d0:	f1b2 4ffe 	cmp.w	r2, #2130706432	; 0x7f000000
 80006d4:	d30f      	bcc.n	80006f6 <__aeabi_f2iz+0x2a>
 80006d6:	f04f 039e 	mov.w	r3, #158	; 0x9e
 80006da:	ebb3 6212 	subs.w	r2, r3, r2, lsr #24
 80006de:	d90d      	bls.n	80006fc <__aeabi_f2iz+0x30>
 80006e0:	ea4f 2300 	mov.w	r3, r0, lsl #8
 80006e4:	f043 4300 	orr.w	r3, r3, #2147483648	; 0x80000000
 80006e8:	f010 4f00 	tst.w	r0, #2147483648	; 0x80000000
 80006ec:	fa23 f002 	lsr.w	r0, r3, r2
 80006f0:	bf18      	it	ne
 80006f2:	4240      	negne	r0, r0
 80006f4:	4770      	bx	lr
 80006f6:	f04f 0000 	mov.w	r0, #0
 80006fa:	4770      	bx	lr
 80006fc:	f112 0f61 	cmn.w	r2, #97	; 0x61
 8000700:	d101      	bne.n	8000706 <__aeabi_f2iz+0x3a>
 8000702:	0242      	lsls	r2, r0, #9
 8000704:	d105      	bne.n	8000712 <__aeabi_f2iz+0x46>
 8000706:	f010 4000 	ands.w	r0, r0, #2147483648	; 0x80000000
 800070a:	bf08      	it	eq
 800070c:	f06f 4000 	mvneq.w	r0, #2147483648	; 0x80000000
 8000710:	4770      	bx	lr
 8000712:	f04f 0000 	mov.w	r0, #0
 8000716:	4770      	bx	lr

08000718 <NVIC_Init>:
  * @param  NVIC_InitStruct: pointer to a NVIC_InitTypeDef structure that contains
  *         the configuration information for the specified NVIC peripheral.
  * @retval None
  */
void NVIC_Init(NVIC_InitTypeDef* NVIC_InitStruct)
{
 8000718:	b480      	push	{r7}
 800071a:	b087      	sub	sp, #28
 800071c:	af00      	add	r7, sp, #0
 800071e:	6078      	str	r0, [r7, #4]
  uint32_t tmppriority = 0x00, tmppre = 0x00, tmpsub = 0x0F;
 8000720:	2300      	movs	r3, #0
 8000722:	617b      	str	r3, [r7, #20]
 8000724:	2300      	movs	r3, #0
 8000726:	613b      	str	r3, [r7, #16]
 8000728:	230f      	movs	r3, #15
 800072a:	60fb      	str	r3, [r7, #12]
  /* Check the parameters */
  assert_param(IS_FUNCTIONAL_STATE(NVIC_InitStruct->NVIC_IRQChannelCmd));
  assert_param(IS_NVIC_PREEMPTION_PRIORITY(NVIC_InitStruct->NVIC_IRQChannelPreemptionPriority));  
  assert_param(IS_NVIC_SUB_PRIORITY(NVIC_InitStruct->NVIC_IRQChannelSubPriority));
    
  if (NVIC_InitStruct->NVIC_IRQChannelCmd != DISABLE)
 800072c:	687b      	ldr	r3, [r7, #4]
 800072e:	78db      	ldrb	r3, [r3, #3]
 8000730:	2b00      	cmp	r3, #0
 8000732:	d03a      	beq.n	80007aa <NVIC_Init+0x92>
  {
    /* Compute the Corresponding IRQ Priority --------------------------------*/    
    tmppriority = (0x700 - ((SCB->AIRCR) & (uint32_t)0x700))>> 0x08;
 8000734:	4b27      	ldr	r3, [pc, #156]	; (80007d4 <NVIC_Init+0xbc>)
 8000736:	68db      	ldr	r3, [r3, #12]
 8000738:	43db      	mvns	r3, r3
 800073a:	0a1b      	lsrs	r3, r3, #8
 800073c:	f003 0307 	and.w	r3, r3, #7
 8000740:	617b      	str	r3, [r7, #20]
    tmppre = (0x4 - tmppriority);
 8000742:	697b      	ldr	r3, [r7, #20]
 8000744:	f1c3 0304 	rsb	r3, r3, #4
 8000748:	613b      	str	r3, [r7, #16]
    tmpsub = tmpsub >> tmppriority;
 800074a:	68fa      	ldr	r2, [r7, #12]
 800074c:	697b      	ldr	r3, [r7, #20]
 800074e:	fa22 f303 	lsr.w	r3, r2, r3
 8000752:	60fb      	str	r3, [r7, #12]

    tmppriority = (uint32_t)NVIC_InitStruct->NVIC_IRQChannelPreemptionPriority << tmppre;
 8000754:	687b      	ldr	r3, [r7, #4]
 8000756:	785b      	ldrb	r3, [r3, #1]
 8000758:	461a      	mov	r2, r3
 800075a:	693b      	ldr	r3, [r7, #16]
 800075c:	fa02 f303 	lsl.w	r3, r2, r3
 8000760:	617b      	str	r3, [r7, #20]
    tmppriority |=  NVIC_InitStruct->NVIC_IRQChannelSubPriority & tmpsub;
 8000762:	687b      	ldr	r3, [r7, #4]
 8000764:	789b      	ldrb	r3, [r3, #2]
 8000766:	461a      	mov	r2, r3
 8000768:	68fb      	ldr	r3, [r7, #12]
 800076a:	4013      	ands	r3, r2
 800076c:	697a      	ldr	r2, [r7, #20]
 800076e:	4313      	orrs	r3, r2
 8000770:	617b      	str	r3, [r7, #20]
    tmppriority = tmppriority << 0x04;
 8000772:	697b      	ldr	r3, [r7, #20]
 8000774:	011b      	lsls	r3, r3, #4
 8000776:	617b      	str	r3, [r7, #20]
        
    NVIC->IP[NVIC_InitStruct->NVIC_IRQChannel] = tmppriority;
 8000778:	4a17      	ldr	r2, [pc, #92]	; (80007d8 <NVIC_Init+0xc0>)
 800077a:	687b      	ldr	r3, [r7, #4]
 800077c:	781b      	ldrb	r3, [r3, #0]
 800077e:	6979      	ldr	r1, [r7, #20]
 8000780:	b2c9      	uxtb	r1, r1
 8000782:	4413      	add	r3, r2
 8000784:	460a      	mov	r2, r1
 8000786:	f883 2300 	strb.w	r2, [r3, #768]	; 0x300
    
    /* Enable the Selected IRQ Channels --------------------------------------*/
    NVIC->ISER[NVIC_InitStruct->NVIC_IRQChannel >> 0x05] =
 800078a:	4a13      	ldr	r2, [pc, #76]	; (80007d8 <NVIC_Init+0xc0>)
 800078c:	687b      	ldr	r3, [r7, #4]
 800078e:	781b      	ldrb	r3, [r3, #0]
 8000790:	095b      	lsrs	r3, r3, #5
 8000792:	b2db      	uxtb	r3, r3
 8000794:	4618      	mov	r0, r3
      (uint32_t)0x01 << (NVIC_InitStruct->NVIC_IRQChannel & (uint8_t)0x1F);
 8000796:	687b      	ldr	r3, [r7, #4]
 8000798:	781b      	ldrb	r3, [r3, #0]
 800079a:	f003 031f 	and.w	r3, r3, #31
 800079e:	2101      	movs	r1, #1
 80007a0:	fa01 f303 	lsl.w	r3, r1, r3
    NVIC->ISER[NVIC_InitStruct->NVIC_IRQChannel >> 0x05] =
 80007a4:	f842 3020 	str.w	r3, [r2, r0, lsl #2]
  {
    /* Disable the Selected IRQ Channels -------------------------------------*/
    NVIC->ICER[NVIC_InitStruct->NVIC_IRQChannel >> 0x05] =
      (uint32_t)0x01 << (NVIC_InitStruct->NVIC_IRQChannel & (uint8_t)0x1F);
  }
}
 80007a8:	e00f      	b.n	80007ca <NVIC_Init+0xb2>
    NVIC->ICER[NVIC_InitStruct->NVIC_IRQChannel >> 0x05] =
 80007aa:	490b      	ldr	r1, [pc, #44]	; (80007d8 <NVIC_Init+0xc0>)
 80007ac:	687b      	ldr	r3, [r7, #4]
 80007ae:	781b      	ldrb	r3, [r3, #0]
 80007b0:	095b      	lsrs	r3, r3, #5
 80007b2:	b2db      	uxtb	r3, r3
 80007b4:	4618      	mov	r0, r3
      (uint32_t)0x01 << (NVIC_InitStruct->NVIC_IRQChannel & (uint8_t)0x1F);
 80007b6:	687b      	ldr	r3, [r7, #4]
 80007b8:	781b      	ldrb	r3, [r3, #0]
 80007ba:	f003 031f 	and.w	r3, r3, #31
 80007be:	2201      	movs	r2, #1
 80007c0:	409a      	lsls	r2, r3
    NVIC->ICER[NVIC_InitStruct->NVIC_IRQChannel >> 0x05] =
 80007c2:	f100 0320 	add.w	r3, r0, #32
 80007c6:	f841 2023 	str.w	r2, [r1, r3, lsl #2]
}
 80007ca:	bf00      	nop
 80007cc:	371c      	adds	r7, #28
 80007ce:	46bd      	mov	sp, r7
 80007d0:	bc80      	pop	{r7}
 80007d2:	4770      	bx	lr
 80007d4:	e000ed00 	.word	0xe000ed00
 80007d8:	e000e100 	.word	0xe000e100

080007dc <GPIO_Init>:
  * @param  GPIO_InitStruct: pointer to a GPIO_InitTypeDef structure that
  *         contains the configuration information for the specified GPIO peripheral.
  * @retval None
  */
void GPIO_Init(GPIO_TypeDef* GPIOx, GPIO_InitTypeDef* GPIO_InitStruct)
{
 80007dc:	b480      	push	{r7}
 80007de:	b089      	sub	sp, #36	; 0x24
 80007e0:	af00      	add	r7, sp, #0
 80007e2:	6078      	str	r0, [r7, #4]
 80007e4:	6039      	str	r1, [r7, #0]
  uint32_t currentmode = 0x00, currentpin = 0x00, pinpos = 0x00, pos = 0x00;
 80007e6:	2300      	movs	r3, #0
 80007e8:	61fb      	str	r3, [r7, #28]
 80007ea:	2300      	movs	r3, #0
 80007ec:	613b      	str	r3, [r7, #16]
 80007ee:	2300      	movs	r3, #0
 80007f0:	61bb      	str	r3, [r7, #24]
 80007f2:	2300      	movs	r3, #0
 80007f4:	60fb      	str	r3, [r7, #12]
  uint32_t tmpreg = 0x00, pinmask = 0x00;
 80007f6:	2300      	movs	r3, #0
 80007f8:	617b      	str	r3, [r7, #20]
 80007fa:	2300      	movs	r3, #0
 80007fc:	60bb      	str	r3, [r7, #8]
  assert_param(IS_GPIO_ALL_PERIPH(GPIOx));
  assert_param(IS_GPIO_MODE(GPIO_InitStruct->GPIO_Mode));
  assert_param(IS_GPIO_PIN(GPIO_InitStruct->GPIO_Pin));  
  
/*---------------------------- GPIO Mode Configuration -----------------------*/
  currentmode = ((uint32_t)GPIO_InitStruct->GPIO_Mode) & ((uint32_t)0x0F);
 80007fe:	683b      	ldr	r3, [r7, #0]
 8000800:	78db      	ldrb	r3, [r3, #3]
 8000802:	f003 030f 	and.w	r3, r3, #15
 8000806:	61fb      	str	r3, [r7, #28]
  if ((((uint32_t)GPIO_InitStruct->GPIO_Mode) & ((uint32_t)0x10)) != 0x00)
 8000808:	683b      	ldr	r3, [r7, #0]
 800080a:	78db      	ldrb	r3, [r3, #3]
 800080c:	f003 0310 	and.w	r3, r3, #16
 8000810:	2b00      	cmp	r3, #0
 8000812:	d005      	beq.n	8000820 <GPIO_Init+0x44>
  { 
    /* Check the parameters */
    assert_param(IS_GPIO_SPEED(GPIO_InitStruct->GPIO_Speed));
    /* Output mode */
    currentmode |= (uint32_t)GPIO_InitStruct->GPIO_Speed;
 8000814:	683b      	ldr	r3, [r7, #0]
 8000816:	789b      	ldrb	r3, [r3, #2]
 8000818:	461a      	mov	r2, r3
 800081a:	69fb      	ldr	r3, [r7, #28]
 800081c:	4313      	orrs	r3, r2
 800081e:	61fb      	str	r3, [r7, #28]
  }
/*---------------------------- GPIO CRL Configuration ------------------------*/
  /* Configure the eight low port pins */
  if (((uint32_t)GPIO_InitStruct->GPIO_Pin & ((uint32_t)0x00FF)) != 0x00)
 8000820:	683b      	ldr	r3, [r7, #0]
 8000822:	881b      	ldrh	r3, [r3, #0]
 8000824:	b2db      	uxtb	r3, r3
 8000826:	2b00      	cmp	r3, #0
 8000828:	d044      	beq.n	80008b4 <GPIO_Init+0xd8>
  {
    tmpreg = GPIOx->CRL;
 800082a:	687b      	ldr	r3, [r7, #4]
 800082c:	681b      	ldr	r3, [r3, #0]
 800082e:	617b      	str	r3, [r7, #20]
    for (pinpos = 0x00; pinpos < 0x08; pinpos++)
 8000830:	2300      	movs	r3, #0
 8000832:	61bb      	str	r3, [r7, #24]
 8000834:	e038      	b.n	80008a8 <GPIO_Init+0xcc>
    {
      pos = ((uint32_t)0x01) << pinpos;
 8000836:	2201      	movs	r2, #1
 8000838:	69bb      	ldr	r3, [r7, #24]
 800083a:	fa02 f303 	lsl.w	r3, r2, r3
 800083e:	60fb      	str	r3, [r7, #12]
      /* Get the port pins position */
      currentpin = (GPIO_InitStruct->GPIO_Pin) & pos;
 8000840:	683b      	ldr	r3, [r7, #0]
 8000842:	881b      	ldrh	r3, [r3, #0]
 8000844:	461a      	mov	r2, r3
 8000846:	68fb      	ldr	r3, [r7, #12]
 8000848:	4013      	ands	r3, r2
 800084a:	613b      	str	r3, [r7, #16]
      if (currentpin == pos)
 800084c:	693a      	ldr	r2, [r7, #16]
 800084e:	68fb      	ldr	r3, [r7, #12]
 8000850:	429a      	cmp	r2, r3
 8000852:	d126      	bne.n	80008a2 <GPIO_Init+0xc6>
      {
        pos = pinpos << 2;
 8000854:	69bb      	ldr	r3, [r7, #24]
 8000856:	009b      	lsls	r3, r3, #2
 8000858:	60fb      	str	r3, [r7, #12]
        /* Clear the corresponding low control register bits */
        pinmask = ((uint32_t)0x0F) << pos;
 800085a:	220f      	movs	r2, #15
 800085c:	68fb      	ldr	r3, [r7, #12]
 800085e:	fa02 f303 	lsl.w	r3, r2, r3
 8000862:	60bb      	str	r3, [r7, #8]
        tmpreg &= ~pinmask;
 8000864:	68bb      	ldr	r3, [r7, #8]
 8000866:	43db      	mvns	r3, r3
 8000868:	697a      	ldr	r2, [r7, #20]
 800086a:	4013      	ands	r3, r2
 800086c:	617b      	str	r3, [r7, #20]
        /* Write the mode configuration in the corresponding bits */
        tmpreg |= (currentmode << pos);
 800086e:	69fa      	ldr	r2, [r7, #28]
 8000870:	68fb      	ldr	r3, [r7, #12]
 8000872:	fa02 f303 	lsl.w	r3, r2, r3
 8000876:	697a      	ldr	r2, [r7, #20]
 8000878:	4313      	orrs	r3, r2
 800087a:	617b      	str	r3, [r7, #20]
        /* Reset the corresponding ODR bit */
        if (GPIO_InitStruct->GPIO_Mode == GPIO_Mode_IPD)
 800087c:	683b      	ldr	r3, [r7, #0]
 800087e:	78db      	ldrb	r3, [r3, #3]
 8000880:	2b28      	cmp	r3, #40	; 0x28
 8000882:	d105      	bne.n	8000890 <GPIO_Init+0xb4>
        {
          GPIOx->BRR = (((uint32_t)0x01) << pinpos);
 8000884:	2201      	movs	r2, #1
 8000886:	69bb      	ldr	r3, [r7, #24]
 8000888:	409a      	lsls	r2, r3
 800088a:	687b      	ldr	r3, [r7, #4]
 800088c:	615a      	str	r2, [r3, #20]
 800088e:	e008      	b.n	80008a2 <GPIO_Init+0xc6>
        }
        else
        {
          /* Set the corresponding ODR bit */
          if (GPIO_InitStruct->GPIO_Mode == GPIO_Mode_IPU)
 8000890:	683b      	ldr	r3, [r7, #0]
 8000892:	78db      	ldrb	r3, [r3, #3]
 8000894:	2b48      	cmp	r3, #72	; 0x48
 8000896:	d104      	bne.n	80008a2 <GPIO_Init+0xc6>
          {
            GPIOx->BSRR = (((uint32_t)0x01) << pinpos);
 8000898:	2201      	movs	r2, #1
 800089a:	69bb      	ldr	r3, [r7, #24]
 800089c:	409a      	lsls	r2, r3
 800089e:	687b      	ldr	r3, [r7, #4]
 80008a0:	611a      	str	r2, [r3, #16]
    for (pinpos = 0x00; pinpos < 0x08; pinpos++)
 80008a2:	69bb      	ldr	r3, [r7, #24]
 80008a4:	3301      	adds	r3, #1
 80008a6:	61bb      	str	r3, [r7, #24]
 80008a8:	69bb      	ldr	r3, [r7, #24]
 80008aa:	2b07      	cmp	r3, #7
 80008ac:	d9c3      	bls.n	8000836 <GPIO_Init+0x5a>
          }
        }
      }
    }
    GPIOx->CRL = tmpreg;
 80008ae:	687b      	ldr	r3, [r7, #4]
 80008b0:	697a      	ldr	r2, [r7, #20]
 80008b2:	601a      	str	r2, [r3, #0]
  }
/*---------------------------- GPIO CRH Configuration ------------------------*/
  /* Configure the eight high port pins */
  if (GPIO_InitStruct->GPIO_Pin > 0x00FF)
 80008b4:	683b      	ldr	r3, [r7, #0]
 80008b6:	881b      	ldrh	r3, [r3, #0]
 80008b8:	2bff      	cmp	r3, #255	; 0xff
 80008ba:	d946      	bls.n	800094a <GPIO_Init+0x16e>
  {
    tmpreg = GPIOx->CRH;
 80008bc:	687b      	ldr	r3, [r7, #4]
 80008be:	685b      	ldr	r3, [r3, #4]
 80008c0:	617b      	str	r3, [r7, #20]
    for (pinpos = 0x00; pinpos < 0x08; pinpos++)
 80008c2:	2300      	movs	r3, #0
 80008c4:	61bb      	str	r3, [r7, #24]
 80008c6:	e03a      	b.n	800093e <GPIO_Init+0x162>
    {
      pos = (((uint32_t)0x01) << (pinpos + 0x08));
 80008c8:	69bb      	ldr	r3, [r7, #24]
 80008ca:	3308      	adds	r3, #8
 80008cc:	2201      	movs	r2, #1
 80008ce:	fa02 f303 	lsl.w	r3, r2, r3
 80008d2:	60fb      	str	r3, [r7, #12]
      /* Get the port pins position */
      currentpin = ((GPIO_InitStruct->GPIO_Pin) & pos);
 80008d4:	683b      	ldr	r3, [r7, #0]
 80008d6:	881b      	ldrh	r3, [r3, #0]
 80008d8:	461a      	mov	r2, r3
 80008da:	68fb      	ldr	r3, [r7, #12]
 80008dc:	4013      	ands	r3, r2
 80008de:	613b      	str	r3, [r7, #16]
      if (currentpin == pos)
 80008e0:	693a      	ldr	r2, [r7, #16]
 80008e2:	68fb      	ldr	r3, [r7, #12]
 80008e4:	429a      	cmp	r2, r3
 80008e6:	d127      	bne.n	8000938 <GPIO_Init+0x15c>
      {
        pos = pinpos << 2;
 80008e8:	69bb      	ldr	r3, [r7, #24]
 80008ea:	009b      	lsls	r3, r3, #2
 80008ec:	60fb      	str	r3, [r7, #12]
        /* Clear the corresponding high control register bits */
        pinmask = ((uint32_t)0x0F) << pos;
 80008ee:	220f      	movs	r2, #15
 80008f0:	68fb      	ldr	r3, [r7, #12]
 80008f2:	fa02 f303 	lsl.w	r3, r2, r3
 80008f6:	60bb      	str	r3, [r7, #8]
        tmpreg &= ~pinmask;
 80008f8:	68bb      	ldr	r3, [r7, #8]
 80008fa:	43db      	mvns	r3, r3
 80008fc:	697a      	ldr	r2, [r7, #20]
 80008fe:	4013      	ands	r3, r2
 8000900:	617b      	str	r3, [r7, #20]
        /* Write the mode configuration in the corresponding bits */
        tmpreg |= (currentmode << pos);
 8000902:	69fa      	ldr	r2, [r7, #28]
 8000904:	68fb      	ldr	r3, [r7, #12]
 8000906:	fa02 f303 	lsl.w	r3, r2, r3
 800090a:	697a      	ldr	r2, [r7, #20]
 800090c:	4313      	orrs	r3, r2
 800090e:	617b      	str	r3, [r7, #20]
        /* Reset the corresponding ODR bit */
        if (GPIO_InitStruct->GPIO_Mode == GPIO_Mode_IPD)
 8000910:	683b      	ldr	r3, [r7, #0]
 8000912:	78db      	ldrb	r3, [r3, #3]
 8000914:	2b28      	cmp	r3, #40	; 0x28
 8000916:	d105      	bne.n	8000924 <GPIO_Init+0x148>
        {
          GPIOx->BRR = (((uint32_t)0x01) << (pinpos + 0x08));
 8000918:	69bb      	ldr	r3, [r7, #24]
 800091a:	3308      	adds	r3, #8
 800091c:	2201      	movs	r2, #1
 800091e:	409a      	lsls	r2, r3
 8000920:	687b      	ldr	r3, [r7, #4]
 8000922:	615a      	str	r2, [r3, #20]
        }
        /* Set the corresponding ODR bit */
        if (GPIO_InitStruct->GPIO_Mode == GPIO_Mode_IPU)
 8000924:	683b      	ldr	r3, [r7, #0]
 8000926:	78db      	ldrb	r3, [r3, #3]
 8000928:	2b48      	cmp	r3, #72	; 0x48
 800092a:	d105      	bne.n	8000938 <GPIO_Init+0x15c>
        {
          GPIOx->BSRR = (((uint32_t)0x01) << (pinpos + 0x08));
 800092c:	69bb      	ldr	r3, [r7, #24]
 800092e:	3308      	adds	r3, #8
 8000930:	2201      	movs	r2, #1
 8000932:	409a      	lsls	r2, r3
 8000934:	687b      	ldr	r3, [r7, #4]
 8000936:	611a      	str	r2, [r3, #16]
    for (pinpos = 0x00; pinpos < 0x08; pinpos++)
 8000938:	69bb      	ldr	r3, [r7, #24]
 800093a:	3301      	adds	r3, #1
 800093c:	61bb      	str	r3, [r7, #24]
 800093e:	69bb      	ldr	r3, [r7, #24]
 8000940:	2b07      	cmp	r3, #7
 8000942:	d9c1      	bls.n	80008c8 <GPIO_Init+0xec>
        }
      }
    }
    GPIOx->CRH = tmpreg;
 8000944:	687b      	ldr	r3, [r7, #4]
 8000946:	697a      	ldr	r2, [r7, #20]
 8000948:	605a      	str	r2, [r3, #4]
  }
}
 800094a:	bf00      	nop
 800094c:	3724      	adds	r7, #36	; 0x24
 800094e:	46bd      	mov	sp, r7
 8000950:	bc80      	pop	{r7}
 8000952:	4770      	bx	lr

08000954 <I2C_Init>:
  * @param  I2C_InitStruct: pointer to a I2C_InitTypeDef structure that
  *   contains the configuration information for the specified I2C peripheral.
  * @retval None
  */
void I2C_Init(I2C_TypeDef* I2Cx, I2C_InitTypeDef* I2C_InitStruct)
{
 8000954:	b580      	push	{r7, lr}
 8000956:	b08a      	sub	sp, #40	; 0x28
 8000958:	af00      	add	r7, sp, #0
 800095a:	6078      	str	r0, [r7, #4]
 800095c:	6039      	str	r1, [r7, #0]
  uint16_t tmpreg = 0, freqrange = 0;
 800095e:	2300      	movs	r3, #0
 8000960:	84fb      	strh	r3, [r7, #38]	; 0x26
 8000962:	2300      	movs	r3, #0
 8000964:	847b      	strh	r3, [r7, #34]	; 0x22
  uint16_t result = 0x04;
 8000966:	2304      	movs	r3, #4
 8000968:	84bb      	strh	r3, [r7, #36]	; 0x24
  uint32_t pclk1 = 8000000;
 800096a:	4b57      	ldr	r3, [pc, #348]	; (8000ac8 <I2C_Init+0x174>)
 800096c:	61fb      	str	r3, [r7, #28]
  assert_param(IS_I2C_ACK_STATE(I2C_InitStruct->I2C_Ack));
  assert_param(IS_I2C_ACKNOWLEDGE_ADDRESS(I2C_InitStruct->I2C_AcknowledgedAddress));

/*---------------------------- I2Cx CR2 Configuration ------------------------*/
  /* Get the I2Cx CR2 value */
  tmpreg = I2Cx->CR2;
 800096e:	687b      	ldr	r3, [r7, #4]
 8000970:	889b      	ldrh	r3, [r3, #4]
 8000972:	84fb      	strh	r3, [r7, #38]	; 0x26
  /* Clear frequency FREQ[5:0] bits */
  tmpreg &= CR2_FREQ_Reset;
 8000974:	8cfb      	ldrh	r3, [r7, #38]	; 0x26
 8000976:	f023 033f 	bic.w	r3, r3, #63	; 0x3f
 800097a:	84fb      	strh	r3, [r7, #38]	; 0x26
  /* Get pclk1 frequency value */
  RCC_GetClocksFreq(&rcc_clocks);
 800097c:	f107 0308 	add.w	r3, r7, #8
 8000980:	4618      	mov	r0, r3
 8000982:	f000 f98d 	bl	8000ca0 <RCC_GetClocksFreq>
  pclk1 = rcc_clocks.PCLK1_Frequency;
 8000986:	693b      	ldr	r3, [r7, #16]
 8000988:	61fb      	str	r3, [r7, #28]
  /* Set frequency bits depending on pclk1 value */
  freqrange = (uint16_t)(pclk1 / 1000000);
 800098a:	69fb      	ldr	r3, [r7, #28]
 800098c:	4a4f      	ldr	r2, [pc, #316]	; (8000acc <I2C_Init+0x178>)
 800098e:	fba2 2303 	umull	r2, r3, r2, r3
 8000992:	0c9b      	lsrs	r3, r3, #18
 8000994:	847b      	strh	r3, [r7, #34]	; 0x22
  tmpreg |= freqrange;
 8000996:	8cfa      	ldrh	r2, [r7, #38]	; 0x26
 8000998:	8c7b      	ldrh	r3, [r7, #34]	; 0x22
 800099a:	4313      	orrs	r3, r2
 800099c:	84fb      	strh	r3, [r7, #38]	; 0x26
  /* Write to I2Cx CR2 */
  I2Cx->CR2 = tmpreg;
 800099e:	687b      	ldr	r3, [r7, #4]
 80009a0:	8cfa      	ldrh	r2, [r7, #38]	; 0x26
 80009a2:	809a      	strh	r2, [r3, #4]

/*---------------------------- I2Cx CCR Configuration ------------------------*/
  /* Disable the selected I2C peripheral to configure TRISE */
  I2Cx->CR1 &= CR1_PE_Reset;
 80009a4:	687b      	ldr	r3, [r7, #4]
 80009a6:	881b      	ldrh	r3, [r3, #0]
 80009a8:	b29b      	uxth	r3, r3
 80009aa:	f023 0301 	bic.w	r3, r3, #1
 80009ae:	b29a      	uxth	r2, r3
 80009b0:	687b      	ldr	r3, [r7, #4]
 80009b2:	801a      	strh	r2, [r3, #0]
  /* Reset tmpreg value */
  /* Clear F/S, DUTY and CCR[11:0] bits */
  tmpreg = 0;
 80009b4:	2300      	movs	r3, #0
 80009b6:	84fb      	strh	r3, [r7, #38]	; 0x26

  /* Configure speed in standard mode */
  if (I2C_InitStruct->I2C_ClockSpeed <= 100000)
 80009b8:	683b      	ldr	r3, [r7, #0]
 80009ba:	681b      	ldr	r3, [r3, #0]
 80009bc:	4a44      	ldr	r2, [pc, #272]	; (8000ad0 <I2C_Init+0x17c>)
 80009be:	4293      	cmp	r3, r2
 80009c0:	d815      	bhi.n	80009ee <I2C_Init+0x9a>
  {
    /* Standard mode speed calculate */
    result = (uint16_t)(pclk1 / (I2C_InitStruct->I2C_ClockSpeed << 1));
 80009c2:	683b      	ldr	r3, [r7, #0]
 80009c4:	681b      	ldr	r3, [r3, #0]
 80009c6:	005b      	lsls	r3, r3, #1
 80009c8:	69fa      	ldr	r2, [r7, #28]
 80009ca:	fbb2 f3f3 	udiv	r3, r2, r3
 80009ce:	84bb      	strh	r3, [r7, #36]	; 0x24
    /* Test if CCR value is under 0x4*/
    if (result < 0x04)
 80009d0:	8cbb      	ldrh	r3, [r7, #36]	; 0x24
 80009d2:	2b03      	cmp	r3, #3
 80009d4:	d801      	bhi.n	80009da <I2C_Init+0x86>
    {
      /* Set minimum allowed value */
      result = 0x04;  
 80009d6:	2304      	movs	r3, #4
 80009d8:	84bb      	strh	r3, [r7, #36]	; 0x24
    }
    /* Set speed value for standard mode */
    tmpreg |= result;	  
 80009da:	8cfa      	ldrh	r2, [r7, #38]	; 0x26
 80009dc:	8cbb      	ldrh	r3, [r7, #36]	; 0x24
 80009de:	4313      	orrs	r3, r2
 80009e0:	84fb      	strh	r3, [r7, #38]	; 0x26
    /* Set Maximum Rise Time for standard mode */
    I2Cx->TRISE = freqrange + 1; 
 80009e2:	8c7b      	ldrh	r3, [r7, #34]	; 0x22
 80009e4:	3301      	adds	r3, #1
 80009e6:	b29a      	uxth	r2, r3
 80009e8:	687b      	ldr	r3, [r7, #4]
 80009ea:	841a      	strh	r2, [r3, #32]
 80009ec:	e040      	b.n	8000a70 <I2C_Init+0x11c>
  }
  /* Configure speed in fast mode */
  else /*(I2C_InitStruct->I2C_ClockSpeed <= 400000)*/
  {
    if (I2C_InitStruct->I2C_DutyCycle == I2C_DutyCycle_2)
 80009ee:	683b      	ldr	r3, [r7, #0]
 80009f0:	88db      	ldrh	r3, [r3, #6]
 80009f2:	f64b 72ff 	movw	r2, #49151	; 0xbfff
 80009f6:	4293      	cmp	r3, r2
 80009f8:	d109      	bne.n	8000a0e <I2C_Init+0xba>
    {
      /* Fast mode speed calculate: Tlow/Thigh = 2 */
      result = (uint16_t)(pclk1 / (I2C_InitStruct->I2C_ClockSpeed * 3));
 80009fa:	683b      	ldr	r3, [r7, #0]
 80009fc:	681a      	ldr	r2, [r3, #0]
 80009fe:	4613      	mov	r3, r2
 8000a00:	005b      	lsls	r3, r3, #1
 8000a02:	4413      	add	r3, r2
 8000a04:	69fa      	ldr	r2, [r7, #28]
 8000a06:	fbb2 f3f3 	udiv	r3, r2, r3
 8000a0a:	84bb      	strh	r3, [r7, #36]	; 0x24
 8000a0c:	e00e      	b.n	8000a2c <I2C_Init+0xd8>
    }
    else /*I2C_InitStruct->I2C_DutyCycle == I2C_DutyCycle_16_9*/
    {
      /* Fast mode speed calculate: Tlow/Thigh = 16/9 */
      result = (uint16_t)(pclk1 / (I2C_InitStruct->I2C_ClockSpeed * 25));
 8000a0e:	683b      	ldr	r3, [r7, #0]
 8000a10:	681a      	ldr	r2, [r3, #0]
 8000a12:	4613      	mov	r3, r2
 8000a14:	009b      	lsls	r3, r3, #2
 8000a16:	4413      	add	r3, r2
 8000a18:	009a      	lsls	r2, r3, #2
 8000a1a:	4413      	add	r3, r2
 8000a1c:	69fa      	ldr	r2, [r7, #28]
 8000a1e:	fbb2 f3f3 	udiv	r3, r2, r3
 8000a22:	84bb      	strh	r3, [r7, #36]	; 0x24
      /* Set DUTY bit */
      result |= I2C_DutyCycle_16_9;
 8000a24:	8cbb      	ldrh	r3, [r7, #36]	; 0x24
 8000a26:	f443 4380 	orr.w	r3, r3, #16384	; 0x4000
 8000a2a:	84bb      	strh	r3, [r7, #36]	; 0x24
    }

    /* Test if CCR value is under 0x1*/
    if ((result & CCR_CCR_Set) == 0)
 8000a2c:	8cbb      	ldrh	r3, [r7, #36]	; 0x24
 8000a2e:	f3c3 030b 	ubfx	r3, r3, #0, #12
 8000a32:	2b00      	cmp	r3, #0
 8000a34:	d103      	bne.n	8000a3e <I2C_Init+0xea>
    {
      /* Set minimum allowed value */
      result |= (uint16_t)0x0001;  
 8000a36:	8cbb      	ldrh	r3, [r7, #36]	; 0x24
 8000a38:	f043 0301 	orr.w	r3, r3, #1
 8000a3c:	84bb      	strh	r3, [r7, #36]	; 0x24
    }
    /* Set speed value and set F/S bit for fast mode */
    tmpreg |= (uint16_t)(result | CCR_FS_Set);
 8000a3e:	8cba      	ldrh	r2, [r7, #36]	; 0x24
 8000a40:	8cfb      	ldrh	r3, [r7, #38]	; 0x26
 8000a42:	4313      	orrs	r3, r2
 8000a44:	b29b      	uxth	r3, r3
 8000a46:	ea6f 4343 	mvn.w	r3, r3, lsl #17
 8000a4a:	ea6f 4353 	mvn.w	r3, r3, lsr #17
 8000a4e:	84fb      	strh	r3, [r7, #38]	; 0x26
    /* Set Maximum Rise Time for fast mode */
    I2Cx->TRISE = (uint16_t)(((freqrange * (uint16_t)300) / (uint16_t)1000) + (uint16_t)1);  
 8000a50:	8c7b      	ldrh	r3, [r7, #34]	; 0x22
 8000a52:	f44f 7296 	mov.w	r2, #300	; 0x12c
 8000a56:	fb02 f303 	mul.w	r3, r2, r3
 8000a5a:	4a1e      	ldr	r2, [pc, #120]	; (8000ad4 <I2C_Init+0x180>)
 8000a5c:	fb82 1203 	smull	r1, r2, r2, r3
 8000a60:	1192      	asrs	r2, r2, #6
 8000a62:	17db      	asrs	r3, r3, #31
 8000a64:	1ad3      	subs	r3, r2, r3
 8000a66:	b29b      	uxth	r3, r3
 8000a68:	3301      	adds	r3, #1
 8000a6a:	b29a      	uxth	r2, r3
 8000a6c:	687b      	ldr	r3, [r7, #4]
 8000a6e:	841a      	strh	r2, [r3, #32]
  }

  /* Write to I2Cx CCR */
  I2Cx->CCR = tmpreg;
 8000a70:	687b      	ldr	r3, [r7, #4]
 8000a72:	8cfa      	ldrh	r2, [r7, #38]	; 0x26
 8000a74:	839a      	strh	r2, [r3, #28]
  /* Enable the selected I2C peripheral */
  I2Cx->CR1 |= CR1_PE_Set;
 8000a76:	687b      	ldr	r3, [r7, #4]
 8000a78:	881b      	ldrh	r3, [r3, #0]
 8000a7a:	b29b      	uxth	r3, r3
 8000a7c:	f043 0301 	orr.w	r3, r3, #1
 8000a80:	b29a      	uxth	r2, r3
 8000a82:	687b      	ldr	r3, [r7, #4]
 8000a84:	801a      	strh	r2, [r3, #0]

/*---------------------------- I2Cx CR1 Configuration ------------------------*/
  /* Get the I2Cx CR1 value */
  tmpreg = I2Cx->CR1;
 8000a86:	687b      	ldr	r3, [r7, #4]
 8000a88:	881b      	ldrh	r3, [r3, #0]
 8000a8a:	84fb      	strh	r3, [r7, #38]	; 0x26
  /* Clear ACK, SMBTYPE and  SMBUS bits */
  tmpreg &= CR1_CLEAR_Mask;
 8000a8c:	8cfb      	ldrh	r3, [r7, #38]	; 0x26
 8000a8e:	f423 6381 	bic.w	r3, r3, #1032	; 0x408
 8000a92:	f023 0302 	bic.w	r3, r3, #2
 8000a96:	84fb      	strh	r3, [r7, #38]	; 0x26
  /* Configure I2Cx: mode and acknowledgement */
  /* Set SMBTYPE and SMBUS bits according to I2C_Mode value */
  /* Set ACK bit according to I2C_Ack value */
  tmpreg |= (uint16_t)((uint32_t)I2C_InitStruct->I2C_Mode | I2C_InitStruct->I2C_Ack);
 8000a98:	683b      	ldr	r3, [r7, #0]
 8000a9a:	889a      	ldrh	r2, [r3, #4]
 8000a9c:	683b      	ldr	r3, [r7, #0]
 8000a9e:	895b      	ldrh	r3, [r3, #10]
 8000aa0:	4313      	orrs	r3, r2
 8000aa2:	b29a      	uxth	r2, r3
 8000aa4:	8cfb      	ldrh	r3, [r7, #38]	; 0x26
 8000aa6:	4313      	orrs	r3, r2
 8000aa8:	84fb      	strh	r3, [r7, #38]	; 0x26
  /* Write to I2Cx CR1 */
  I2Cx->CR1 = tmpreg;
 8000aaa:	687b      	ldr	r3, [r7, #4]
 8000aac:	8cfa      	ldrh	r2, [r7, #38]	; 0x26
 8000aae:	801a      	strh	r2, [r3, #0]

/*---------------------------- I2Cx OAR1 Configuration -----------------------*/
  /* Set I2Cx Own Address1 and acknowledged address */
  I2Cx->OAR1 = (I2C_InitStruct->I2C_AcknowledgedAddress | I2C_InitStruct->I2C_OwnAddress1);
 8000ab0:	683b      	ldr	r3, [r7, #0]
 8000ab2:	899a      	ldrh	r2, [r3, #12]
 8000ab4:	683b      	ldr	r3, [r7, #0]
 8000ab6:	891b      	ldrh	r3, [r3, #8]
 8000ab8:	4313      	orrs	r3, r2
 8000aba:	b29a      	uxth	r2, r3
 8000abc:	687b      	ldr	r3, [r7, #4]
 8000abe:	811a      	strh	r2, [r3, #8]
}
 8000ac0:	bf00      	nop
 8000ac2:	3728      	adds	r7, #40	; 0x28
 8000ac4:	46bd      	mov	sp, r7
 8000ac6:	bd80      	pop	{r7, pc}
 8000ac8:	007a1200 	.word	0x007a1200
 8000acc:	431bde83 	.word	0x431bde83
 8000ad0:	000186a0 	.word	0x000186a0
 8000ad4:	10624dd3 	.word	0x10624dd3

08000ad8 <I2C_Cmd>:
  * @param  NewState: new state of the I2Cx peripheral. 
  *   This parameter can be: ENABLE or DISABLE.
  * @retval None
  */
void I2C_Cmd(I2C_TypeDef* I2Cx, FunctionalState NewState)
{
 8000ad8:	b480      	push	{r7}
 8000ada:	b083      	sub	sp, #12
 8000adc:	af00      	add	r7, sp, #0
 8000ade:	6078      	str	r0, [r7, #4]
 8000ae0:	460b      	mov	r3, r1
 8000ae2:	70fb      	strb	r3, [r7, #3]
  /* Check the parameters */
  assert_param(IS_I2C_ALL_PERIPH(I2Cx));
  assert_param(IS_FUNCTIONAL_STATE(NewState));
  if (NewState != DISABLE)
 8000ae4:	78fb      	ldrb	r3, [r7, #3]
 8000ae6:	2b00      	cmp	r3, #0
 8000ae8:	d008      	beq.n	8000afc <I2C_Cmd+0x24>
  {
    /* Enable the selected I2C peripheral */
    I2Cx->CR1 |= CR1_PE_Set;
 8000aea:	687b      	ldr	r3, [r7, #4]
 8000aec:	881b      	ldrh	r3, [r3, #0]
 8000aee:	b29b      	uxth	r3, r3
 8000af0:	f043 0301 	orr.w	r3, r3, #1
 8000af4:	b29a      	uxth	r2, r3
 8000af6:	687b      	ldr	r3, [r7, #4]
 8000af8:	801a      	strh	r2, [r3, #0]
  else
  {
    /* Disable the selected I2C peripheral */
    I2Cx->CR1 &= CR1_PE_Reset;
  }
}
 8000afa:	e007      	b.n	8000b0c <I2C_Cmd+0x34>
    I2Cx->CR1 &= CR1_PE_Reset;
 8000afc:	687b      	ldr	r3, [r7, #4]
 8000afe:	881b      	ldrh	r3, [r3, #0]
 8000b00:	b29b      	uxth	r3, r3
 8000b02:	f023 0301 	bic.w	r3, r3, #1
 8000b06:	b29a      	uxth	r2, r3
 8000b08:	687b      	ldr	r3, [r7, #4]
 8000b0a:	801a      	strh	r2, [r3, #0]
}
 8000b0c:	bf00      	nop
 8000b0e:	370c      	adds	r7, #12
 8000b10:	46bd      	mov	sp, r7
 8000b12:	bc80      	pop	{r7}
 8000b14:	4770      	bx	lr

08000b16 <I2C_GenerateSTART>:
  * @param  NewState: new state of the I2C START condition generation.
  *   This parameter can be: ENABLE or DISABLE.
  * @retval None.
  */
void I2C_GenerateSTART(I2C_TypeDef* I2Cx, FunctionalState NewState)
{
 8000b16:	b480      	push	{r7}
 8000b18:	b083      	sub	sp, #12
 8000b1a:	af00      	add	r7, sp, #0
 8000b1c:	6078      	str	r0, [r7, #4]
 8000b1e:	460b      	mov	r3, r1
 8000b20:	70fb      	strb	r3, [r7, #3]
  /* Check the parameters */
  assert_param(IS_I2C_ALL_PERIPH(I2Cx));
  assert_param(IS_FUNCTIONAL_STATE(NewState));
  if (NewState != DISABLE)
 8000b22:	78fb      	ldrb	r3, [r7, #3]
 8000b24:	2b00      	cmp	r3, #0
 8000b26:	d008      	beq.n	8000b3a <I2C_GenerateSTART+0x24>
  {
    /* Generate a START condition */
    I2Cx->CR1 |= CR1_START_Set;
 8000b28:	687b      	ldr	r3, [r7, #4]
 8000b2a:	881b      	ldrh	r3, [r3, #0]
 8000b2c:	b29b      	uxth	r3, r3
 8000b2e:	f443 7380 	orr.w	r3, r3, #256	; 0x100
 8000b32:	b29a      	uxth	r2, r3
 8000b34:	687b      	ldr	r3, [r7, #4]
 8000b36:	801a      	strh	r2, [r3, #0]
  else
  {
    /* Disable the START condition generation */
    I2Cx->CR1 &= CR1_START_Reset;
  }
}
 8000b38:	e007      	b.n	8000b4a <I2C_GenerateSTART+0x34>
    I2Cx->CR1 &= CR1_START_Reset;
 8000b3a:	687b      	ldr	r3, [r7, #4]
 8000b3c:	881b      	ldrh	r3, [r3, #0]
 8000b3e:	b29b      	uxth	r3, r3
 8000b40:	f423 7380 	bic.w	r3, r3, #256	; 0x100
 8000b44:	b29a      	uxth	r2, r3
 8000b46:	687b      	ldr	r3, [r7, #4]
 8000b48:	801a      	strh	r2, [r3, #0]
}
 8000b4a:	bf00      	nop
 8000b4c:	370c      	adds	r7, #12
 8000b4e:	46bd      	mov	sp, r7
 8000b50:	bc80      	pop	{r7}
 8000b52:	4770      	bx	lr

08000b54 <I2C_GenerateSTOP>:
  * @param  NewState: new state of the I2C STOP condition generation.
  *   This parameter can be: ENABLE or DISABLE.
  * @retval None.
  */
void I2C_GenerateSTOP(I2C_TypeDef* I2Cx, FunctionalState NewState)
{
 8000b54:	b480      	push	{r7}
 8000b56:	b083      	sub	sp, #12
 8000b58:	af00      	add	r7, sp, #0
 8000b5a:	6078      	str	r0, [r7, #4]
 8000b5c:	460b      	mov	r3, r1
 8000b5e:	70fb      	strb	r3, [r7, #3]
  /* Check the parameters */
  assert_param(IS_I2C_ALL_PERIPH(I2Cx));
  assert_param(IS_FUNCTIONAL_STATE(NewState));
  if (NewState != DISABLE)
 8000b60:	78fb      	ldrb	r3, [r7, #3]
 8000b62:	2b00      	cmp	r3, #0
 8000b64:	d008      	beq.n	8000b78 <I2C_GenerateSTOP+0x24>
  {
    /* Generate a STOP condition */
    I2Cx->CR1 |= CR1_STOP_Set;
 8000b66:	687b      	ldr	r3, [r7, #4]
 8000b68:	881b      	ldrh	r3, [r3, #0]
 8000b6a:	b29b      	uxth	r3, r3
 8000b6c:	f443 7300 	orr.w	r3, r3, #512	; 0x200
 8000b70:	b29a      	uxth	r2, r3
 8000b72:	687b      	ldr	r3, [r7, #4]
 8000b74:	801a      	strh	r2, [r3, #0]
  else
  {
    /* Disable the STOP condition generation */
    I2Cx->CR1 &= CR1_STOP_Reset;
  }
}
 8000b76:	e007      	b.n	8000b88 <I2C_GenerateSTOP+0x34>
    I2Cx->CR1 &= CR1_STOP_Reset;
 8000b78:	687b      	ldr	r3, [r7, #4]
 8000b7a:	881b      	ldrh	r3, [r3, #0]
 8000b7c:	b29b      	uxth	r3, r3
 8000b7e:	f423 7300 	bic.w	r3, r3, #512	; 0x200
 8000b82:	b29a      	uxth	r2, r3
 8000b84:	687b      	ldr	r3, [r7, #4]
 8000b86:	801a      	strh	r2, [r3, #0]
}
 8000b88:	bf00      	nop
 8000b8a:	370c      	adds	r7, #12
 8000b8c:	46bd      	mov	sp, r7
 8000b8e:	bc80      	pop	{r7}
 8000b90:	4770      	bx	lr

08000b92 <I2C_AcknowledgeConfig>:
  * @param  NewState: new state of the I2C Acknowledgement.
  *   This parameter can be: ENABLE or DISABLE.
  * @retval None.
  */
void I2C_AcknowledgeConfig(I2C_TypeDef* I2Cx, FunctionalState NewState)
{
 8000b92:	b480      	push	{r7}
 8000b94:	b083      	sub	sp, #12
 8000b96:	af00      	add	r7, sp, #0
 8000b98:	6078      	str	r0, [r7, #4]
 8000b9a:	460b      	mov	r3, r1
 8000b9c:	70fb      	strb	r3, [r7, #3]
  /* Check the parameters */
  assert_param(IS_I2C_ALL_PERIPH(I2Cx));
  assert_param(IS_FUNCTIONAL_STATE(NewState));
  if (NewState != DISABLE)
 8000b9e:	78fb      	ldrb	r3, [r7, #3]
 8000ba0:	2b00      	cmp	r3, #0
 8000ba2:	d008      	beq.n	8000bb6 <I2C_AcknowledgeConfig+0x24>
  {
    /* Enable the acknowledgement */
    I2Cx->CR1 |= CR1_ACK_Set;
 8000ba4:	687b      	ldr	r3, [r7, #4]
 8000ba6:	881b      	ldrh	r3, [r3, #0]
 8000ba8:	b29b      	uxth	r3, r3
 8000baa:	f443 6380 	orr.w	r3, r3, #1024	; 0x400
 8000bae:	b29a      	uxth	r2, r3
 8000bb0:	687b      	ldr	r3, [r7, #4]
 8000bb2:	801a      	strh	r2, [r3, #0]
  else
  {
    /* Disable the acknowledgement */
    I2Cx->CR1 &= CR1_ACK_Reset;
  }
}
 8000bb4:	e007      	b.n	8000bc6 <I2C_AcknowledgeConfig+0x34>
    I2Cx->CR1 &= CR1_ACK_Reset;
 8000bb6:	687b      	ldr	r3, [r7, #4]
 8000bb8:	881b      	ldrh	r3, [r3, #0]
 8000bba:	b29b      	uxth	r3, r3
 8000bbc:	f423 6380 	bic.w	r3, r3, #1024	; 0x400
 8000bc0:	b29a      	uxth	r2, r3
 8000bc2:	687b      	ldr	r3, [r7, #4]
 8000bc4:	801a      	strh	r2, [r3, #0]
}
 8000bc6:	bf00      	nop
 8000bc8:	370c      	adds	r7, #12
 8000bca:	46bd      	mov	sp, r7
 8000bcc:	bc80      	pop	{r7}
 8000bce:	4770      	bx	lr

08000bd0 <I2C_SendData>:
  * @param  I2Cx: where x can be 1 or 2 to select the I2C peripheral.
  * @param  Data: Byte to be transmitted..
  * @retval None
  */
void I2C_SendData(I2C_TypeDef* I2Cx, uint8_t Data)
{
 8000bd0:	b480      	push	{r7}
 8000bd2:	b083      	sub	sp, #12
 8000bd4:	af00      	add	r7, sp, #0
 8000bd6:	6078      	str	r0, [r7, #4]
 8000bd8:	460b      	mov	r3, r1
 8000bda:	70fb      	strb	r3, [r7, #3]
  /* Check the parameters */
  assert_param(IS_I2C_ALL_PERIPH(I2Cx));
  /* Write in the DR register the data to be sent */
  I2Cx->DR = Data;
 8000bdc:	78fb      	ldrb	r3, [r7, #3]
 8000bde:	b29a      	uxth	r2, r3
 8000be0:	687b      	ldr	r3, [r7, #4]
 8000be2:	821a      	strh	r2, [r3, #16]
}
 8000be4:	bf00      	nop
 8000be6:	370c      	adds	r7, #12
 8000be8:	46bd      	mov	sp, r7
 8000bea:	bc80      	pop	{r7}
 8000bec:	4770      	bx	lr

08000bee <I2C_ReceiveData>:
  * @brief  Returns the most recent received data by the I2Cx peripheral.
  * @param  I2Cx: where x can be 1 or 2 to select the I2C peripheral.
  * @retval The value of the received data.
  */
uint8_t I2C_ReceiveData(I2C_TypeDef* I2Cx)
{
 8000bee:	b480      	push	{r7}
 8000bf0:	b083      	sub	sp, #12
 8000bf2:	af00      	add	r7, sp, #0
 8000bf4:	6078      	str	r0, [r7, #4]
  /* Check the parameters */
  assert_param(IS_I2C_ALL_PERIPH(I2Cx));
  /* Return the data in the DR register */
  return (uint8_t)I2Cx->DR;
 8000bf6:	687b      	ldr	r3, [r7, #4]
 8000bf8:	8a1b      	ldrh	r3, [r3, #16]
 8000bfa:	b29b      	uxth	r3, r3
 8000bfc:	b2db      	uxtb	r3, r3
}
 8000bfe:	4618      	mov	r0, r3
 8000c00:	370c      	adds	r7, #12
 8000c02:	46bd      	mov	sp, r7
 8000c04:	bc80      	pop	{r7}
 8000c06:	4770      	bx	lr

08000c08 <I2C_Send7bitAddress>:
  *     @arg I2C_Direction_Transmitter: Transmitter mode
  *     @arg I2C_Direction_Receiver: Receiver mode
  * @retval None.
  */
void I2C_Send7bitAddress(I2C_TypeDef* I2Cx, uint8_t Address, uint8_t I2C_Direction)
{
 8000c08:	b480      	push	{r7}
 8000c0a:	b083      	sub	sp, #12
 8000c0c:	af00      	add	r7, sp, #0
 8000c0e:	6078      	str	r0, [r7, #4]
 8000c10:	460b      	mov	r3, r1
 8000c12:	70fb      	strb	r3, [r7, #3]
 8000c14:	4613      	mov	r3, r2
 8000c16:	70bb      	strb	r3, [r7, #2]
  /* Check the parameters */
  assert_param(IS_I2C_ALL_PERIPH(I2Cx));
  assert_param(IS_I2C_DIRECTION(I2C_Direction));
  /* Test on the direction to set/reset the read/write bit */
  if (I2C_Direction != I2C_Direction_Transmitter)
 8000c18:	78bb      	ldrb	r3, [r7, #2]
 8000c1a:	2b00      	cmp	r3, #0
 8000c1c:	d004      	beq.n	8000c28 <I2C_Send7bitAddress+0x20>
  {
    /* Set the address bit0 for read */
    Address |= OAR1_ADD0_Set;
 8000c1e:	78fb      	ldrb	r3, [r7, #3]
 8000c20:	f043 0301 	orr.w	r3, r3, #1
 8000c24:	70fb      	strb	r3, [r7, #3]
 8000c26:	e003      	b.n	8000c30 <I2C_Send7bitAddress+0x28>
  }
  else
  {
    /* Reset the address bit0 for write */
    Address &= OAR1_ADD0_Reset;
 8000c28:	78fb      	ldrb	r3, [r7, #3]
 8000c2a:	f023 0301 	bic.w	r3, r3, #1
 8000c2e:	70fb      	strb	r3, [r7, #3]
  }
  /* Send the address */
  I2Cx->DR = Address;
 8000c30:	78fb      	ldrb	r3, [r7, #3]
 8000c32:	b29a      	uxth	r2, r3
 8000c34:	687b      	ldr	r3, [r7, #4]
 8000c36:	821a      	strh	r2, [r3, #16]
}
 8000c38:	bf00      	nop
 8000c3a:	370c      	adds	r7, #12
 8000c3c:	46bd      	mov	sp, r7
 8000c3e:	bc80      	pop	{r7}
 8000c40:	4770      	bx	lr

08000c42 <I2C_CheckEvent>:
  * @retval An ErrorStatus enumeration value:
  * - SUCCESS: Last event is equal to the I2C_EVENT
  * - ERROR: Last event is different from the I2C_EVENT
  */
ErrorStatus I2C_CheckEvent(I2C_TypeDef* I2Cx, uint32_t I2C_EVENT)
{
 8000c42:	b480      	push	{r7}
 8000c44:	b087      	sub	sp, #28
 8000c46:	af00      	add	r7, sp, #0
 8000c48:	6078      	str	r0, [r7, #4]
 8000c4a:	6039      	str	r1, [r7, #0]
  uint32_t lastevent = 0;
 8000c4c:	2300      	movs	r3, #0
 8000c4e:	613b      	str	r3, [r7, #16]
  uint32_t flag1 = 0, flag2 = 0;
 8000c50:	2300      	movs	r3, #0
 8000c52:	60fb      	str	r3, [r7, #12]
 8000c54:	2300      	movs	r3, #0
 8000c56:	60bb      	str	r3, [r7, #8]
  ErrorStatus status = ERROR;
 8000c58:	2300      	movs	r3, #0
 8000c5a:	75fb      	strb	r3, [r7, #23]
  /* Check the parameters */
  assert_param(IS_I2C_ALL_PERIPH(I2Cx));
  assert_param(IS_I2C_EVENT(I2C_EVENT));

  /* Read the I2Cx status register */
  flag1 = I2Cx->SR1;
 8000c5c:	687b      	ldr	r3, [r7, #4]
 8000c5e:	8a9b      	ldrh	r3, [r3, #20]
 8000c60:	b29b      	uxth	r3, r3
 8000c62:	60fb      	str	r3, [r7, #12]
  flag2 = I2Cx->SR2;
 8000c64:	687b      	ldr	r3, [r7, #4]
 8000c66:	8b1b      	ldrh	r3, [r3, #24]
 8000c68:	b29b      	uxth	r3, r3
 8000c6a:	60bb      	str	r3, [r7, #8]
  flag2 = flag2 << 16;
 8000c6c:	68bb      	ldr	r3, [r7, #8]
 8000c6e:	041b      	lsls	r3, r3, #16
 8000c70:	60bb      	str	r3, [r7, #8]

  /* Get the last event value from I2C status register */
  lastevent = (flag1 | flag2) & FLAG_Mask;
 8000c72:	68fa      	ldr	r2, [r7, #12]
 8000c74:	68bb      	ldr	r3, [r7, #8]
 8000c76:	4313      	orrs	r3, r2
 8000c78:	f023 437f 	bic.w	r3, r3, #4278190080	; 0xff000000
 8000c7c:	613b      	str	r3, [r7, #16]

  /* Check whether the last event contains the I2C_EVENT */
  if ((lastevent & I2C_EVENT) == I2C_EVENT)
 8000c7e:	693a      	ldr	r2, [r7, #16]
 8000c80:	683b      	ldr	r3, [r7, #0]
 8000c82:	401a      	ands	r2, r3
 8000c84:	683b      	ldr	r3, [r7, #0]
 8000c86:	429a      	cmp	r2, r3
 8000c88:	d102      	bne.n	8000c90 <I2C_CheckEvent+0x4e>
  {
    /* SUCCESS: last event is equal to I2C_EVENT */
    status = SUCCESS;
 8000c8a:	2301      	movs	r3, #1
 8000c8c:	75fb      	strb	r3, [r7, #23]
 8000c8e:	e001      	b.n	8000c94 <I2C_CheckEvent+0x52>
  }
  else
  {
    /* ERROR: last event is different from I2C_EVENT */
    status = ERROR;
 8000c90:	2300      	movs	r3, #0
 8000c92:	75fb      	strb	r3, [r7, #23]
  }
  /* Return status */
  return status;
 8000c94:	7dfb      	ldrb	r3, [r7, #23]
}
 8000c96:	4618      	mov	r0, r3
 8000c98:	371c      	adds	r7, #28
 8000c9a:	46bd      	mov	sp, r7
 8000c9c:	bc80      	pop	{r7}
 8000c9e:	4770      	bx	lr

08000ca0 <RCC_GetClocksFreq>:
  * @note   The result of this function could be not correct when using 
  *         fractional value for HSE crystal.  
  * @retval None
  */
void RCC_GetClocksFreq(RCC_ClocksTypeDef* RCC_Clocks)
{
 8000ca0:	b480      	push	{r7}
 8000ca2:	b089      	sub	sp, #36	; 0x24
 8000ca4:	af00      	add	r7, sp, #0
 8000ca6:	6078      	str	r0, [r7, #4]
  uint32_t tmp = 0, pllmull = 0, pllsource = 0, presc = 0;
 8000ca8:	2300      	movs	r3, #0
 8000caa:	61fb      	str	r3, [r7, #28]
 8000cac:	2300      	movs	r3, #0
 8000cae:	61bb      	str	r3, [r7, #24]
 8000cb0:	2300      	movs	r3, #0
 8000cb2:	617b      	str	r3, [r7, #20]
 8000cb4:	2300      	movs	r3, #0
 8000cb6:	613b      	str	r3, [r7, #16]
#ifdef  STM32F10X_CL
  uint32_t prediv1source = 0, prediv1factor = 0, prediv2factor = 0, pll2mull = 0;
#endif /* STM32F10X_CL */

#if defined (STM32F10X_LD_VL) || defined (STM32F10X_MD_VL) || defined (STM32F10X_HD_VL)
  uint32_t prediv1factor = 0;
 8000cb8:	2300      	movs	r3, #0
 8000cba:	60fb      	str	r3, [r7, #12]
#endif
    
  /* Get SYSCLK source -------------------------------------------------------*/
  tmp = RCC->CFGR & CFGR_SWS_Mask;
 8000cbc:	4b4a      	ldr	r3, [pc, #296]	; (8000de8 <RCC_GetClocksFreq+0x148>)
 8000cbe:	685b      	ldr	r3, [r3, #4]
 8000cc0:	f003 030c 	and.w	r3, r3, #12
 8000cc4:	61fb      	str	r3, [r7, #28]
  
  switch (tmp)
 8000cc6:	69fb      	ldr	r3, [r7, #28]
 8000cc8:	2b04      	cmp	r3, #4
 8000cca:	d007      	beq.n	8000cdc <RCC_GetClocksFreq+0x3c>
 8000ccc:	2b08      	cmp	r3, #8
 8000cce:	d009      	beq.n	8000ce4 <RCC_GetClocksFreq+0x44>
 8000cd0:	2b00      	cmp	r3, #0
 8000cd2:	d12f      	bne.n	8000d34 <RCC_GetClocksFreq+0x94>
  {
    case 0x00:  /* HSI used as system clock */
      RCC_Clocks->SYSCLK_Frequency = HSI_VALUE;
 8000cd4:	687b      	ldr	r3, [r7, #4]
 8000cd6:	4a45      	ldr	r2, [pc, #276]	; (8000dec <RCC_GetClocksFreq+0x14c>)
 8000cd8:	601a      	str	r2, [r3, #0]
      break;
 8000cda:	e02f      	b.n	8000d3c <RCC_GetClocksFreq+0x9c>
    case 0x04:  /* HSE used as system clock */
      RCC_Clocks->SYSCLK_Frequency = HSE_VALUE;
 8000cdc:	687b      	ldr	r3, [r7, #4]
 8000cde:	4a43      	ldr	r2, [pc, #268]	; (8000dec <RCC_GetClocksFreq+0x14c>)
 8000ce0:	601a      	str	r2, [r3, #0]
      break;
 8000ce2:	e02b      	b.n	8000d3c <RCC_GetClocksFreq+0x9c>
    case 0x08:  /* PLL used as system clock */

      /* Get PLL clock source and multiplication factor ----------------------*/
      pllmull = RCC->CFGR & CFGR_PLLMull_Mask;
 8000ce4:	4b40      	ldr	r3, [pc, #256]	; (8000de8 <RCC_GetClocksFreq+0x148>)
 8000ce6:	685b      	ldr	r3, [r3, #4]
 8000ce8:	f403 1370 	and.w	r3, r3, #3932160	; 0x3c0000
 8000cec:	61bb      	str	r3, [r7, #24]
      pllsource = RCC->CFGR & CFGR_PLLSRC_Mask;
 8000cee:	4b3e      	ldr	r3, [pc, #248]	; (8000de8 <RCC_GetClocksFreq+0x148>)
 8000cf0:	685b      	ldr	r3, [r3, #4]
 8000cf2:	f403 3380 	and.w	r3, r3, #65536	; 0x10000
 8000cf6:	617b      	str	r3, [r7, #20]
      
#ifndef STM32F10X_CL      
      pllmull = ( pllmull >> 18) + 2;
 8000cf8:	69bb      	ldr	r3, [r7, #24]
 8000cfa:	0c9b      	lsrs	r3, r3, #18
 8000cfc:	3302      	adds	r3, #2
 8000cfe:	61bb      	str	r3, [r7, #24]
      
      if (pllsource == 0x00)
 8000d00:	697b      	ldr	r3, [r7, #20]
 8000d02:	2b00      	cmp	r3, #0
 8000d04:	d106      	bne.n	8000d14 <RCC_GetClocksFreq+0x74>
      {/* HSI oscillator clock divided by 2 selected as PLL clock entry */
        RCC_Clocks->SYSCLK_Frequency = (HSI_VALUE >> 1) * pllmull;
 8000d06:	69bb      	ldr	r3, [r7, #24]
 8000d08:	4a39      	ldr	r2, [pc, #228]	; (8000df0 <RCC_GetClocksFreq+0x150>)
 8000d0a:	fb02 f203 	mul.w	r2, r2, r3
 8000d0e:	687b      	ldr	r3, [r7, #4]
 8000d10:	601a      	str	r2, [r3, #0]
          pll2mull = ((RCC->CFGR2 & CFGR2_PLL2MUL) >> 8 ) + 2; 
          RCC_Clocks->SYSCLK_Frequency = (((HSE_VALUE / prediv2factor) * pll2mull) / prediv1factor) * pllmull;                         
        }
      }
#endif /* STM32F10X_CL */ 
      break;
 8000d12:	e013      	b.n	8000d3c <RCC_GetClocksFreq+0x9c>
       prediv1factor = (RCC->CFGR2 & CFGR2_PREDIV1) + 1;
 8000d14:	4b34      	ldr	r3, [pc, #208]	; (8000de8 <RCC_GetClocksFreq+0x148>)
 8000d16:	6adb      	ldr	r3, [r3, #44]	; 0x2c
 8000d18:	f003 030f 	and.w	r3, r3, #15
 8000d1c:	3301      	adds	r3, #1
 8000d1e:	60fb      	str	r3, [r7, #12]
       RCC_Clocks->SYSCLK_Frequency = (HSE_VALUE / prediv1factor) * pllmull; 
 8000d20:	4a32      	ldr	r2, [pc, #200]	; (8000dec <RCC_GetClocksFreq+0x14c>)
 8000d22:	68fb      	ldr	r3, [r7, #12]
 8000d24:	fbb2 f3f3 	udiv	r3, r2, r3
 8000d28:	69ba      	ldr	r2, [r7, #24]
 8000d2a:	fb02 f203 	mul.w	r2, r2, r3
 8000d2e:	687b      	ldr	r3, [r7, #4]
 8000d30:	601a      	str	r2, [r3, #0]
      break;
 8000d32:	e003      	b.n	8000d3c <RCC_GetClocksFreq+0x9c>

    default:
      RCC_Clocks->SYSCLK_Frequency = HSI_VALUE;
 8000d34:	687b      	ldr	r3, [r7, #4]
 8000d36:	4a2d      	ldr	r2, [pc, #180]	; (8000dec <RCC_GetClocksFreq+0x14c>)
 8000d38:	601a      	str	r2, [r3, #0]
      break;
 8000d3a:	bf00      	nop
  }

  /* Compute HCLK, PCLK1, PCLK2 and ADCCLK clocks frequencies ----------------*/
  /* Get HCLK prescaler */
  tmp = RCC->CFGR & CFGR_HPRE_Set_Mask;
 8000d3c:	4b2a      	ldr	r3, [pc, #168]	; (8000de8 <RCC_GetClocksFreq+0x148>)
 8000d3e:	685b      	ldr	r3, [r3, #4]
 8000d40:	f003 03f0 	and.w	r3, r3, #240	; 0xf0
 8000d44:	61fb      	str	r3, [r7, #28]
  tmp = tmp >> 4;
 8000d46:	69fb      	ldr	r3, [r7, #28]
 8000d48:	091b      	lsrs	r3, r3, #4
 8000d4a:	61fb      	str	r3, [r7, #28]
  presc = APBAHBPrescTable[tmp];
 8000d4c:	4a29      	ldr	r2, [pc, #164]	; (8000df4 <RCC_GetClocksFreq+0x154>)
 8000d4e:	69fb      	ldr	r3, [r7, #28]
 8000d50:	4413      	add	r3, r2
 8000d52:	781b      	ldrb	r3, [r3, #0]
 8000d54:	b2db      	uxtb	r3, r3
 8000d56:	613b      	str	r3, [r7, #16]
  /* HCLK clock frequency */
  RCC_Clocks->HCLK_Frequency = RCC_Clocks->SYSCLK_Frequency >> presc;
 8000d58:	687b      	ldr	r3, [r7, #4]
 8000d5a:	681a      	ldr	r2, [r3, #0]
 8000d5c:	693b      	ldr	r3, [r7, #16]
 8000d5e:	40da      	lsrs	r2, r3
 8000d60:	687b      	ldr	r3, [r7, #4]
 8000d62:	605a      	str	r2, [r3, #4]
  /* Get PCLK1 prescaler */
  tmp = RCC->CFGR & CFGR_PPRE1_Set_Mask;
 8000d64:	4b20      	ldr	r3, [pc, #128]	; (8000de8 <RCC_GetClocksFreq+0x148>)
 8000d66:	685b      	ldr	r3, [r3, #4]
 8000d68:	f403 63e0 	and.w	r3, r3, #1792	; 0x700
 8000d6c:	61fb      	str	r3, [r7, #28]
  tmp = tmp >> 8;
 8000d6e:	69fb      	ldr	r3, [r7, #28]
 8000d70:	0a1b      	lsrs	r3, r3, #8
 8000d72:	61fb      	str	r3, [r7, #28]
  presc = APBAHBPrescTable[tmp];
 8000d74:	4a1f      	ldr	r2, [pc, #124]	; (8000df4 <RCC_GetClocksFreq+0x154>)
 8000d76:	69fb      	ldr	r3, [r7, #28]
 8000d78:	4413      	add	r3, r2
 8000d7a:	781b      	ldrb	r3, [r3, #0]
 8000d7c:	b2db      	uxtb	r3, r3
 8000d7e:	613b      	str	r3, [r7, #16]
  /* PCLK1 clock frequency */
  RCC_Clocks->PCLK1_Frequency = RCC_Clocks->HCLK_Frequency >> presc;
 8000d80:	687b      	ldr	r3, [r7, #4]
 8000d82:	685a      	ldr	r2, [r3, #4]
 8000d84:	693b      	ldr	r3, [r7, #16]
 8000d86:	40da      	lsrs	r2, r3
 8000d88:	687b      	ldr	r3, [r7, #4]
 8000d8a:	609a      	str	r2, [r3, #8]
  /* Get PCLK2 prescaler */
  tmp = RCC->CFGR & CFGR_PPRE2_Set_Mask;
 8000d8c:	4b16      	ldr	r3, [pc, #88]	; (8000de8 <RCC_GetClocksFreq+0x148>)
 8000d8e:	685b      	ldr	r3, [r3, #4]
 8000d90:	f403 5360 	and.w	r3, r3, #14336	; 0x3800
 8000d94:	61fb      	str	r3, [r7, #28]
  tmp = tmp >> 11;
 8000d96:	69fb      	ldr	r3, [r7, #28]
 8000d98:	0adb      	lsrs	r3, r3, #11
 8000d9a:	61fb      	str	r3, [r7, #28]
  presc = APBAHBPrescTable[tmp];
 8000d9c:	4a15      	ldr	r2, [pc, #84]	; (8000df4 <RCC_GetClocksFreq+0x154>)
 8000d9e:	69fb      	ldr	r3, [r7, #28]
 8000da0:	4413      	add	r3, r2
 8000da2:	781b      	ldrb	r3, [r3, #0]
 8000da4:	b2db      	uxtb	r3, r3
 8000da6:	613b      	str	r3, [r7, #16]
  /* PCLK2 clock frequency */
  RCC_Clocks->PCLK2_Frequency = RCC_Clocks->HCLK_Frequency >> presc;
 8000da8:	687b      	ldr	r3, [r7, #4]
 8000daa:	685a      	ldr	r2, [r3, #4]
 8000dac:	693b      	ldr	r3, [r7, #16]
 8000dae:	40da      	lsrs	r2, r3
 8000db0:	687b      	ldr	r3, [r7, #4]
 8000db2:	60da      	str	r2, [r3, #12]
  /* Get ADCCLK prescaler */
  tmp = RCC->CFGR & CFGR_ADCPRE_Set_Mask;
 8000db4:	4b0c      	ldr	r3, [pc, #48]	; (8000de8 <RCC_GetClocksFreq+0x148>)
 8000db6:	685b      	ldr	r3, [r3, #4]
 8000db8:	f403 4340 	and.w	r3, r3, #49152	; 0xc000
 8000dbc:	61fb      	str	r3, [r7, #28]
  tmp = tmp >> 14;
 8000dbe:	69fb      	ldr	r3, [r7, #28]
 8000dc0:	0b9b      	lsrs	r3, r3, #14
 8000dc2:	61fb      	str	r3, [r7, #28]
  presc = ADCPrescTable[tmp];
 8000dc4:	4a0c      	ldr	r2, [pc, #48]	; (8000df8 <RCC_GetClocksFreq+0x158>)
 8000dc6:	69fb      	ldr	r3, [r7, #28]
 8000dc8:	4413      	add	r3, r2
 8000dca:	781b      	ldrb	r3, [r3, #0]
 8000dcc:	b2db      	uxtb	r3, r3
 8000dce:	613b      	str	r3, [r7, #16]
  /* ADCCLK clock frequency */
  RCC_Clocks->ADCCLK_Frequency = RCC_Clocks->PCLK2_Frequency / presc;
 8000dd0:	687b      	ldr	r3, [r7, #4]
 8000dd2:	68da      	ldr	r2, [r3, #12]
 8000dd4:	693b      	ldr	r3, [r7, #16]
 8000dd6:	fbb2 f2f3 	udiv	r2, r2, r3
 8000dda:	687b      	ldr	r3, [r7, #4]
 8000ddc:	611a      	str	r2, [r3, #16]
}
 8000dde:	bf00      	nop
 8000de0:	3724      	adds	r7, #36	; 0x24
 8000de2:	46bd      	mov	sp, r7
 8000de4:	bc80      	pop	{r7}
 8000de6:	4770      	bx	lr
 8000de8:	40021000 	.word	0x40021000
 8000dec:	007a1200 	.word	0x007a1200
 8000df0:	003d0900 	.word	0x003d0900
 8000df4:	20000000 	.word	0x20000000
 8000df8:	20000010 	.word	0x20000010

08000dfc <RCC_APB2PeriphClockCmd>:
  * @param  NewState: new state of the specified peripheral clock.
  *   This parameter can be: ENABLE or DISABLE.
  * @retval None
  */
void RCC_APB2PeriphClockCmd(uint32_t RCC_APB2Periph, FunctionalState NewState)
{
 8000dfc:	b480      	push	{r7}
 8000dfe:	b083      	sub	sp, #12
 8000e00:	af00      	add	r7, sp, #0
 8000e02:	6078      	str	r0, [r7, #4]
 8000e04:	460b      	mov	r3, r1
 8000e06:	70fb      	strb	r3, [r7, #3]
  /* Check the parameters */
  assert_param(IS_RCC_APB2_PERIPH(RCC_APB2Periph));
  assert_param(IS_FUNCTIONAL_STATE(NewState));
  if (NewState != DISABLE)
 8000e08:	78fb      	ldrb	r3, [r7, #3]
 8000e0a:	2b00      	cmp	r3, #0
 8000e0c:	d006      	beq.n	8000e1c <RCC_APB2PeriphClockCmd+0x20>
  {
    RCC->APB2ENR |= RCC_APB2Periph;
 8000e0e:	4909      	ldr	r1, [pc, #36]	; (8000e34 <RCC_APB2PeriphClockCmd+0x38>)
 8000e10:	4b08      	ldr	r3, [pc, #32]	; (8000e34 <RCC_APB2PeriphClockCmd+0x38>)
 8000e12:	699a      	ldr	r2, [r3, #24]
 8000e14:	687b      	ldr	r3, [r7, #4]
 8000e16:	4313      	orrs	r3, r2
 8000e18:	618b      	str	r3, [r1, #24]
  }
  else
  {
    RCC->APB2ENR &= ~RCC_APB2Periph;
  }
}
 8000e1a:	e006      	b.n	8000e2a <RCC_APB2PeriphClockCmd+0x2e>
    RCC->APB2ENR &= ~RCC_APB2Periph;
 8000e1c:	4905      	ldr	r1, [pc, #20]	; (8000e34 <RCC_APB2PeriphClockCmd+0x38>)
 8000e1e:	4b05      	ldr	r3, [pc, #20]	; (8000e34 <RCC_APB2PeriphClockCmd+0x38>)
 8000e20:	699a      	ldr	r2, [r3, #24]
 8000e22:	687b      	ldr	r3, [r7, #4]
 8000e24:	43db      	mvns	r3, r3
 8000e26:	4013      	ands	r3, r2
 8000e28:	618b      	str	r3, [r1, #24]
}
 8000e2a:	bf00      	nop
 8000e2c:	370c      	adds	r7, #12
 8000e2e:	46bd      	mov	sp, r7
 8000e30:	bc80      	pop	{r7}
 8000e32:	4770      	bx	lr
 8000e34:	40021000 	.word	0x40021000

08000e38 <RCC_APB1PeriphClockCmd>:
  * @param  NewState: new state of the specified peripheral clock.
  *   This parameter can be: ENABLE or DISABLE.
  * @retval None
  */
void RCC_APB1PeriphClockCmd(uint32_t RCC_APB1Periph, FunctionalState NewState)
{
 8000e38:	b480      	push	{r7}
 8000e3a:	b083      	sub	sp, #12
 8000e3c:	af00      	add	r7, sp, #0
 8000e3e:	6078      	str	r0, [r7, #4]
 8000e40:	460b      	mov	r3, r1
 8000e42:	70fb      	strb	r3, [r7, #3]
  /* Check the parameters */
  assert_param(IS_RCC_APB1_PERIPH(RCC_APB1Periph));
  assert_param(IS_FUNCTIONAL_STATE(NewState));
  if (NewState != DISABLE)
 8000e44:	78fb      	ldrb	r3, [r7, #3]
 8000e46:	2b00      	cmp	r3, #0
 8000e48:	d006      	beq.n	8000e58 <RCC_APB1PeriphClockCmd+0x20>
  {
    RCC->APB1ENR |= RCC_APB1Periph;
 8000e4a:	4909      	ldr	r1, [pc, #36]	; (8000e70 <RCC_APB1PeriphClockCmd+0x38>)
 8000e4c:	4b08      	ldr	r3, [pc, #32]	; (8000e70 <RCC_APB1PeriphClockCmd+0x38>)
 8000e4e:	69da      	ldr	r2, [r3, #28]
 8000e50:	687b      	ldr	r3, [r7, #4]
 8000e52:	4313      	orrs	r3, r2
 8000e54:	61cb      	str	r3, [r1, #28]
  }
  else
  {
    RCC->APB1ENR &= ~RCC_APB1Periph;
  }
}
 8000e56:	e006      	b.n	8000e66 <RCC_APB1PeriphClockCmd+0x2e>
    RCC->APB1ENR &= ~RCC_APB1Periph;
 8000e58:	4905      	ldr	r1, [pc, #20]	; (8000e70 <RCC_APB1PeriphClockCmd+0x38>)
 8000e5a:	4b05      	ldr	r3, [pc, #20]	; (8000e70 <RCC_APB1PeriphClockCmd+0x38>)
 8000e5c:	69da      	ldr	r2, [r3, #28]
 8000e5e:	687b      	ldr	r3, [r7, #4]
 8000e60:	43db      	mvns	r3, r3
 8000e62:	4013      	ands	r3, r2
 8000e64:	61cb      	str	r3, [r1, #28]
}
 8000e66:	bf00      	nop
 8000e68:	370c      	adds	r7, #12
 8000e6a:	46bd      	mov	sp, r7
 8000e6c:	bc80      	pop	{r7}
 8000e6e:	4770      	bx	lr
 8000e70:	40021000 	.word	0x40021000

08000e74 <TIM_TimeBaseInit>:
  *         structure that contains the configuration information for the 
  *         specified TIM peripheral.
  * @retval None
  */
void TIM_TimeBaseInit(TIM_TypeDef* TIMx, TIM_TimeBaseInitTypeDef* TIM_TimeBaseInitStruct)
{
 8000e74:	b480      	push	{r7}
 8000e76:	b085      	sub	sp, #20
 8000e78:	af00      	add	r7, sp, #0
 8000e7a:	6078      	str	r0, [r7, #4]
 8000e7c:	6039      	str	r1, [r7, #0]
  uint16_t tmpcr1 = 0;
 8000e7e:	2300      	movs	r3, #0
 8000e80:	81fb      	strh	r3, [r7, #14]
  /* Check the parameters */
  assert_param(IS_TIM_ALL_PERIPH(TIMx)); 
  assert_param(IS_TIM_COUNTER_MODE(TIM_TimeBaseInitStruct->TIM_CounterMode));
  assert_param(IS_TIM_CKD_DIV(TIM_TimeBaseInitStruct->TIM_ClockDivision));

  tmpcr1 = TIMx->CR1;  
 8000e82:	687b      	ldr	r3, [r7, #4]
 8000e84:	881b      	ldrh	r3, [r3, #0]
 8000e86:	81fb      	strh	r3, [r7, #14]

  if((TIMx == TIM1) || (TIMx == TIM8)|| (TIMx == TIM2) || (TIMx == TIM3)||
 8000e88:	687b      	ldr	r3, [r7, #4]
 8000e8a:	4a2e      	ldr	r2, [pc, #184]	; (8000f44 <TIM_TimeBaseInit+0xd0>)
 8000e8c:	4293      	cmp	r3, r2
 8000e8e:	d013      	beq.n	8000eb8 <TIM_TimeBaseInit+0x44>
 8000e90:	687b      	ldr	r3, [r7, #4]
 8000e92:	4a2d      	ldr	r2, [pc, #180]	; (8000f48 <TIM_TimeBaseInit+0xd4>)
 8000e94:	4293      	cmp	r3, r2
 8000e96:	d00f      	beq.n	8000eb8 <TIM_TimeBaseInit+0x44>
 8000e98:	687b      	ldr	r3, [r7, #4]
 8000e9a:	f1b3 4f80 	cmp.w	r3, #1073741824	; 0x40000000
 8000e9e:	d00b      	beq.n	8000eb8 <TIM_TimeBaseInit+0x44>
 8000ea0:	687b      	ldr	r3, [r7, #4]
 8000ea2:	4a2a      	ldr	r2, [pc, #168]	; (8000f4c <TIM_TimeBaseInit+0xd8>)
 8000ea4:	4293      	cmp	r3, r2
 8000ea6:	d007      	beq.n	8000eb8 <TIM_TimeBaseInit+0x44>
 8000ea8:	687b      	ldr	r3, [r7, #4]
 8000eaa:	4a29      	ldr	r2, [pc, #164]	; (8000f50 <TIM_TimeBaseInit+0xdc>)
 8000eac:	4293      	cmp	r3, r2
 8000eae:	d003      	beq.n	8000eb8 <TIM_TimeBaseInit+0x44>
     (TIMx == TIM4) || (TIMx == TIM5)) 
 8000eb0:	687b      	ldr	r3, [r7, #4]
 8000eb2:	4a28      	ldr	r2, [pc, #160]	; (8000f54 <TIM_TimeBaseInit+0xe0>)
 8000eb4:	4293      	cmp	r3, r2
 8000eb6:	d108      	bne.n	8000eca <TIM_TimeBaseInit+0x56>
  {
    /* Select the Counter Mode */
    tmpcr1 &= (uint16_t)(~((uint16_t)(TIM_CR1_DIR | TIM_CR1_CMS)));
 8000eb8:	89fb      	ldrh	r3, [r7, #14]
 8000eba:	f023 0370 	bic.w	r3, r3, #112	; 0x70
 8000ebe:	81fb      	strh	r3, [r7, #14]
    tmpcr1 |= (uint32_t)TIM_TimeBaseInitStruct->TIM_CounterMode;
 8000ec0:	683b      	ldr	r3, [r7, #0]
 8000ec2:	885a      	ldrh	r2, [r3, #2]
 8000ec4:	89fb      	ldrh	r3, [r7, #14]
 8000ec6:	4313      	orrs	r3, r2
 8000ec8:	81fb      	strh	r3, [r7, #14]
  }
 
  if((TIMx != TIM6) && (TIMx != TIM7))
 8000eca:	687b      	ldr	r3, [r7, #4]
 8000ecc:	4a22      	ldr	r2, [pc, #136]	; (8000f58 <TIM_TimeBaseInit+0xe4>)
 8000ece:	4293      	cmp	r3, r2
 8000ed0:	d00c      	beq.n	8000eec <TIM_TimeBaseInit+0x78>
 8000ed2:	687b      	ldr	r3, [r7, #4]
 8000ed4:	4a21      	ldr	r2, [pc, #132]	; (8000f5c <TIM_TimeBaseInit+0xe8>)
 8000ed6:	4293      	cmp	r3, r2
 8000ed8:	d008      	beq.n	8000eec <TIM_TimeBaseInit+0x78>
  {
    /* Set the clock division */
    tmpcr1 &= (uint16_t)(~((uint16_t)TIM_CR1_CKD));
 8000eda:	89fb      	ldrh	r3, [r7, #14]
 8000edc:	f423 7340 	bic.w	r3, r3, #768	; 0x300
 8000ee0:	81fb      	strh	r3, [r7, #14]
    tmpcr1 |= (uint32_t)TIM_TimeBaseInitStruct->TIM_ClockDivision;
 8000ee2:	683b      	ldr	r3, [r7, #0]
 8000ee4:	88da      	ldrh	r2, [r3, #6]
 8000ee6:	89fb      	ldrh	r3, [r7, #14]
 8000ee8:	4313      	orrs	r3, r2
 8000eea:	81fb      	strh	r3, [r7, #14]
  }

  TIMx->CR1 = tmpcr1;
 8000eec:	687b      	ldr	r3, [r7, #4]
 8000eee:	89fa      	ldrh	r2, [r7, #14]
 8000ef0:	801a      	strh	r2, [r3, #0]

  /* Set the Autoreload value */
  TIMx->ARR = TIM_TimeBaseInitStruct->TIM_Period ;
 8000ef2:	683b      	ldr	r3, [r7, #0]
 8000ef4:	889a      	ldrh	r2, [r3, #4]
 8000ef6:	687b      	ldr	r3, [r7, #4]
 8000ef8:	859a      	strh	r2, [r3, #44]	; 0x2c
 
  /* Set the Prescaler value */
  TIMx->PSC = TIM_TimeBaseInitStruct->TIM_Prescaler;
 8000efa:	683b      	ldr	r3, [r7, #0]
 8000efc:	881a      	ldrh	r2, [r3, #0]
 8000efe:	687b      	ldr	r3, [r7, #4]
 8000f00:	851a      	strh	r2, [r3, #40]	; 0x28
    
  if ((TIMx == TIM1) || (TIMx == TIM8)|| (TIMx == TIM15)|| (TIMx == TIM16) || (TIMx == TIM17))  
 8000f02:	687b      	ldr	r3, [r7, #4]
 8000f04:	4a0f      	ldr	r2, [pc, #60]	; (8000f44 <TIM_TimeBaseInit+0xd0>)
 8000f06:	4293      	cmp	r3, r2
 8000f08:	d00f      	beq.n	8000f2a <TIM_TimeBaseInit+0xb6>
 8000f0a:	687b      	ldr	r3, [r7, #4]
 8000f0c:	4a0e      	ldr	r2, [pc, #56]	; (8000f48 <TIM_TimeBaseInit+0xd4>)
 8000f0e:	4293      	cmp	r3, r2
 8000f10:	d00b      	beq.n	8000f2a <TIM_TimeBaseInit+0xb6>
 8000f12:	687b      	ldr	r3, [r7, #4]
 8000f14:	4a12      	ldr	r2, [pc, #72]	; (8000f60 <TIM_TimeBaseInit+0xec>)
 8000f16:	4293      	cmp	r3, r2
 8000f18:	d007      	beq.n	8000f2a <TIM_TimeBaseInit+0xb6>
 8000f1a:	687b      	ldr	r3, [r7, #4]
 8000f1c:	4a11      	ldr	r2, [pc, #68]	; (8000f64 <TIM_TimeBaseInit+0xf0>)
 8000f1e:	4293      	cmp	r3, r2
 8000f20:	d003      	beq.n	8000f2a <TIM_TimeBaseInit+0xb6>
 8000f22:	687b      	ldr	r3, [r7, #4]
 8000f24:	4a10      	ldr	r2, [pc, #64]	; (8000f68 <TIM_TimeBaseInit+0xf4>)
 8000f26:	4293      	cmp	r3, r2
 8000f28:	d104      	bne.n	8000f34 <TIM_TimeBaseInit+0xc0>
  {
    /* Set the Repetition Counter value */
    TIMx->RCR = TIM_TimeBaseInitStruct->TIM_RepetitionCounter;
 8000f2a:	683b      	ldr	r3, [r7, #0]
 8000f2c:	7a1b      	ldrb	r3, [r3, #8]
 8000f2e:	b29a      	uxth	r2, r3
 8000f30:	687b      	ldr	r3, [r7, #4]
 8000f32:	861a      	strh	r2, [r3, #48]	; 0x30
  }

  /* Generate an update event to reload the Prescaler and the Repetition counter
     values immediately */
  TIMx->EGR = TIM_PSCReloadMode_Immediate;           
 8000f34:	687b      	ldr	r3, [r7, #4]
 8000f36:	2201      	movs	r2, #1
 8000f38:	829a      	strh	r2, [r3, #20]
}
 8000f3a:	bf00      	nop
 8000f3c:	3714      	adds	r7, #20
 8000f3e:	46bd      	mov	sp, r7
 8000f40:	bc80      	pop	{r7}
 8000f42:	4770      	bx	lr
 8000f44:	40012c00 	.word	0x40012c00
 8000f48:	40013400 	.word	0x40013400
 8000f4c:	40000400 	.word	0x40000400
 8000f50:	40000800 	.word	0x40000800
 8000f54:	40000c00 	.word	0x40000c00
 8000f58:	40001000 	.word	0x40001000
 8000f5c:	40001400 	.word	0x40001400
 8000f60:	40014000 	.word	0x40014000
 8000f64:	40014400 	.word	0x40014400
 8000f68:	40014800 	.word	0x40014800

08000f6c <TIM_OC1Init>:
  * @param  TIM_OCInitStruct: pointer to a TIM_OCInitTypeDef structure
  *         that contains the configuration information for the specified TIM peripheral.
  * @retval None
  */
void TIM_OC1Init(TIM_TypeDef* TIMx, TIM_OCInitTypeDef* TIM_OCInitStruct)
{
 8000f6c:	b480      	push	{r7}
 8000f6e:	b085      	sub	sp, #20
 8000f70:	af00      	add	r7, sp, #0
 8000f72:	6078      	str	r0, [r7, #4]
 8000f74:	6039      	str	r1, [r7, #0]
  uint16_t tmpccmrx = 0, tmpccer = 0, tmpcr2 = 0;
 8000f76:	2300      	movs	r3, #0
 8000f78:	817b      	strh	r3, [r7, #10]
 8000f7a:	2300      	movs	r3, #0
 8000f7c:	81fb      	strh	r3, [r7, #14]
 8000f7e:	2300      	movs	r3, #0
 8000f80:	81bb      	strh	r3, [r7, #12]
  assert_param(IS_TIM_LIST8_PERIPH(TIMx));
  assert_param(IS_TIM_OC_MODE(TIM_OCInitStruct->TIM_OCMode));
  assert_param(IS_TIM_OUTPUT_STATE(TIM_OCInitStruct->TIM_OutputState));
  assert_param(IS_TIM_OC_POLARITY(TIM_OCInitStruct->TIM_OCPolarity));   
 /* Disable the Channel 1: Reset the CC1E Bit */
  TIMx->CCER &= (uint16_t)(~(uint16_t)TIM_CCER_CC1E);
 8000f82:	687b      	ldr	r3, [r7, #4]
 8000f84:	8c1b      	ldrh	r3, [r3, #32]
 8000f86:	b29b      	uxth	r3, r3
 8000f88:	f023 0301 	bic.w	r3, r3, #1
 8000f8c:	b29a      	uxth	r2, r3
 8000f8e:	687b      	ldr	r3, [r7, #4]
 8000f90:	841a      	strh	r2, [r3, #32]
  /* Get the TIMx CCER register value */
  tmpccer = TIMx->CCER;
 8000f92:	687b      	ldr	r3, [r7, #4]
 8000f94:	8c1b      	ldrh	r3, [r3, #32]
 8000f96:	81fb      	strh	r3, [r7, #14]
  /* Get the TIMx CR2 register value */
  tmpcr2 =  TIMx->CR2;
 8000f98:	687b      	ldr	r3, [r7, #4]
 8000f9a:	889b      	ldrh	r3, [r3, #4]
 8000f9c:	81bb      	strh	r3, [r7, #12]
  
  /* Get the TIMx CCMR1 register value */
  tmpccmrx = TIMx->CCMR1;
 8000f9e:	687b      	ldr	r3, [r7, #4]
 8000fa0:	8b1b      	ldrh	r3, [r3, #24]
 8000fa2:	817b      	strh	r3, [r7, #10]
    
  /* Reset the Output Compare Mode Bits */
  tmpccmrx &= (uint16_t)(~((uint16_t)TIM_CCMR1_OC1M));
 8000fa4:	897b      	ldrh	r3, [r7, #10]
 8000fa6:	f023 0370 	bic.w	r3, r3, #112	; 0x70
 8000faa:	817b      	strh	r3, [r7, #10]
  tmpccmrx &= (uint16_t)(~((uint16_t)TIM_CCMR1_CC1S));
 8000fac:	897b      	ldrh	r3, [r7, #10]
 8000fae:	f023 0303 	bic.w	r3, r3, #3
 8000fb2:	817b      	strh	r3, [r7, #10]

  /* Select the Output Compare Mode */
  tmpccmrx |= TIM_OCInitStruct->TIM_OCMode;
 8000fb4:	683b      	ldr	r3, [r7, #0]
 8000fb6:	881a      	ldrh	r2, [r3, #0]
 8000fb8:	897b      	ldrh	r3, [r7, #10]
 8000fba:	4313      	orrs	r3, r2
 8000fbc:	817b      	strh	r3, [r7, #10]
  
  /* Reset the Output Polarity level */
  tmpccer &= (uint16_t)(~((uint16_t)TIM_CCER_CC1P));
 8000fbe:	89fb      	ldrh	r3, [r7, #14]
 8000fc0:	f023 0302 	bic.w	r3, r3, #2
 8000fc4:	81fb      	strh	r3, [r7, #14]
  /* Set the Output Compare Polarity */
  tmpccer |= TIM_OCInitStruct->TIM_OCPolarity;
 8000fc6:	683b      	ldr	r3, [r7, #0]
 8000fc8:	891a      	ldrh	r2, [r3, #8]
 8000fca:	89fb      	ldrh	r3, [r7, #14]
 8000fcc:	4313      	orrs	r3, r2
 8000fce:	81fb      	strh	r3, [r7, #14]
  
  /* Set the Output State */
  tmpccer |= TIM_OCInitStruct->TIM_OutputState;
 8000fd0:	683b      	ldr	r3, [r7, #0]
 8000fd2:	885a      	ldrh	r2, [r3, #2]
 8000fd4:	89fb      	ldrh	r3, [r7, #14]
 8000fd6:	4313      	orrs	r3, r2
 8000fd8:	81fb      	strh	r3, [r7, #14]
    
  if((TIMx == TIM1) || (TIMx == TIM8)|| (TIMx == TIM15)||
 8000fda:	687b      	ldr	r3, [r7, #4]
 8000fdc:	4a24      	ldr	r2, [pc, #144]	; (8001070 <TIM_OC1Init+0x104>)
 8000fde:	4293      	cmp	r3, r2
 8000fe0:	d00f      	beq.n	8001002 <TIM_OC1Init+0x96>
 8000fe2:	687b      	ldr	r3, [r7, #4]
 8000fe4:	4a23      	ldr	r2, [pc, #140]	; (8001074 <TIM_OC1Init+0x108>)
 8000fe6:	4293      	cmp	r3, r2
 8000fe8:	d00b      	beq.n	8001002 <TIM_OC1Init+0x96>
 8000fea:	687b      	ldr	r3, [r7, #4]
 8000fec:	4a22      	ldr	r2, [pc, #136]	; (8001078 <TIM_OC1Init+0x10c>)
 8000fee:	4293      	cmp	r3, r2
 8000ff0:	d007      	beq.n	8001002 <TIM_OC1Init+0x96>
 8000ff2:	687b      	ldr	r3, [r7, #4]
 8000ff4:	4a21      	ldr	r2, [pc, #132]	; (800107c <TIM_OC1Init+0x110>)
 8000ff6:	4293      	cmp	r3, r2
 8000ff8:	d003      	beq.n	8001002 <TIM_OC1Init+0x96>
     (TIMx == TIM16)|| (TIMx == TIM17))
 8000ffa:	687b      	ldr	r3, [r7, #4]
 8000ffc:	4a20      	ldr	r2, [pc, #128]	; (8001080 <TIM_OC1Init+0x114>)
 8000ffe:	4293      	cmp	r3, r2
 8001000:	d123      	bne.n	800104a <TIM_OC1Init+0xde>
    assert_param(IS_TIM_OCN_POLARITY(TIM_OCInitStruct->TIM_OCNPolarity));
    assert_param(IS_TIM_OCNIDLE_STATE(TIM_OCInitStruct->TIM_OCNIdleState));
    assert_param(IS_TIM_OCIDLE_STATE(TIM_OCInitStruct->TIM_OCIdleState));
    
    /* Reset the Output N Polarity level */
    tmpccer &= (uint16_t)(~((uint16_t)TIM_CCER_CC1NP));
 8001002:	89fb      	ldrh	r3, [r7, #14]
 8001004:	f023 0308 	bic.w	r3, r3, #8
 8001008:	81fb      	strh	r3, [r7, #14]
    /* Set the Output N Polarity */
    tmpccer |= TIM_OCInitStruct->TIM_OCNPolarity;
 800100a:	683b      	ldr	r3, [r7, #0]
 800100c:	895a      	ldrh	r2, [r3, #10]
 800100e:	89fb      	ldrh	r3, [r7, #14]
 8001010:	4313      	orrs	r3, r2
 8001012:	81fb      	strh	r3, [r7, #14]
    
    /* Reset the Output N State */
    tmpccer &= (uint16_t)(~((uint16_t)TIM_CCER_CC1NE));    
 8001014:	89fb      	ldrh	r3, [r7, #14]
 8001016:	f023 0304 	bic.w	r3, r3, #4
 800101a:	81fb      	strh	r3, [r7, #14]
    /* Set the Output N State */
    tmpccer |= TIM_OCInitStruct->TIM_OutputNState;
 800101c:	683b      	ldr	r3, [r7, #0]
 800101e:	889a      	ldrh	r2, [r3, #4]
 8001020:	89fb      	ldrh	r3, [r7, #14]
 8001022:	4313      	orrs	r3, r2
 8001024:	81fb      	strh	r3, [r7, #14]
    
    /* Reset the Output Compare and Output Compare N IDLE State */
    tmpcr2 &= (uint16_t)(~((uint16_t)TIM_CR2_OIS1));
 8001026:	89bb      	ldrh	r3, [r7, #12]
 8001028:	f423 7380 	bic.w	r3, r3, #256	; 0x100
 800102c:	81bb      	strh	r3, [r7, #12]
    tmpcr2 &= (uint16_t)(~((uint16_t)TIM_CR2_OIS1N));
 800102e:	89bb      	ldrh	r3, [r7, #12]
 8001030:	f423 7300 	bic.w	r3, r3, #512	; 0x200
 8001034:	81bb      	strh	r3, [r7, #12]
    
    /* Set the Output Idle state */
    tmpcr2 |= TIM_OCInitStruct->TIM_OCIdleState;
 8001036:	683b      	ldr	r3, [r7, #0]
 8001038:	899a      	ldrh	r2, [r3, #12]
 800103a:	89bb      	ldrh	r3, [r7, #12]
 800103c:	4313      	orrs	r3, r2
 800103e:	81bb      	strh	r3, [r7, #12]
    /* Set the Output N Idle state */
    tmpcr2 |= TIM_OCInitStruct->TIM_OCNIdleState;
 8001040:	683b      	ldr	r3, [r7, #0]
 8001042:	89da      	ldrh	r2, [r3, #14]
 8001044:	89bb      	ldrh	r3, [r7, #12]
 8001046:	4313      	orrs	r3, r2
 8001048:	81bb      	strh	r3, [r7, #12]
  }
  /* Write to TIMx CR2 */
  TIMx->CR2 = tmpcr2;
 800104a:	687b      	ldr	r3, [r7, #4]
 800104c:	89ba      	ldrh	r2, [r7, #12]
 800104e:	809a      	strh	r2, [r3, #4]
  
  /* Write to TIMx CCMR1 */
  TIMx->CCMR1 = tmpccmrx;
 8001050:	687b      	ldr	r3, [r7, #4]
 8001052:	897a      	ldrh	r2, [r7, #10]
 8001054:	831a      	strh	r2, [r3, #24]

  /* Set the Capture Compare Register value */
  TIMx->CCR1 = TIM_OCInitStruct->TIM_Pulse; 
 8001056:	683b      	ldr	r3, [r7, #0]
 8001058:	88da      	ldrh	r2, [r3, #6]
 800105a:	687b      	ldr	r3, [r7, #4]
 800105c:	869a      	strh	r2, [r3, #52]	; 0x34
 
  /* Write to TIMx CCER */
  TIMx->CCER = tmpccer;
 800105e:	687b      	ldr	r3, [r7, #4]
 8001060:	89fa      	ldrh	r2, [r7, #14]
 8001062:	841a      	strh	r2, [r3, #32]
}
 8001064:	bf00      	nop
 8001066:	3714      	adds	r7, #20
 8001068:	46bd      	mov	sp, r7
 800106a:	bc80      	pop	{r7}
 800106c:	4770      	bx	lr
 800106e:	bf00      	nop
 8001070:	40012c00 	.word	0x40012c00
 8001074:	40013400 	.word	0x40013400
 8001078:	40014000 	.word	0x40014000
 800107c:	40014400 	.word	0x40014400
 8001080:	40014800 	.word	0x40014800

08001084 <TIM_OC2Init>:
  * @param  TIM_OCInitStruct: pointer to a TIM_OCInitTypeDef structure
  *         that contains the configuration information for the specified TIM peripheral.
  * @retval None
  */
void TIM_OC2Init(TIM_TypeDef* TIMx, TIM_OCInitTypeDef* TIM_OCInitStruct)
{
 8001084:	b480      	push	{r7}
 8001086:	b085      	sub	sp, #20
 8001088:	af00      	add	r7, sp, #0
 800108a:	6078      	str	r0, [r7, #4]
 800108c:	6039      	str	r1, [r7, #0]
  uint16_t tmpccmrx = 0, tmpccer = 0, tmpcr2 = 0;
 800108e:	2300      	movs	r3, #0
 8001090:	817b      	strh	r3, [r7, #10]
 8001092:	2300      	movs	r3, #0
 8001094:	81fb      	strh	r3, [r7, #14]
 8001096:	2300      	movs	r3, #0
 8001098:	81bb      	strh	r3, [r7, #12]
  assert_param(IS_TIM_LIST6_PERIPH(TIMx)); 
  assert_param(IS_TIM_OC_MODE(TIM_OCInitStruct->TIM_OCMode));
  assert_param(IS_TIM_OUTPUT_STATE(TIM_OCInitStruct->TIM_OutputState));
  assert_param(IS_TIM_OC_POLARITY(TIM_OCInitStruct->TIM_OCPolarity));   
   /* Disable the Channel 2: Reset the CC2E Bit */
  TIMx->CCER &= (uint16_t)(~((uint16_t)TIM_CCER_CC2E));
 800109a:	687b      	ldr	r3, [r7, #4]
 800109c:	8c1b      	ldrh	r3, [r3, #32]
 800109e:	b29b      	uxth	r3, r3
 80010a0:	f023 0310 	bic.w	r3, r3, #16
 80010a4:	b29a      	uxth	r2, r3
 80010a6:	687b      	ldr	r3, [r7, #4]
 80010a8:	841a      	strh	r2, [r3, #32]
  
  /* Get the TIMx CCER register value */  
  tmpccer = TIMx->CCER;
 80010aa:	687b      	ldr	r3, [r7, #4]
 80010ac:	8c1b      	ldrh	r3, [r3, #32]
 80010ae:	81fb      	strh	r3, [r7, #14]
  /* Get the TIMx CR2 register value */
  tmpcr2 =  TIMx->CR2;
 80010b0:	687b      	ldr	r3, [r7, #4]
 80010b2:	889b      	ldrh	r3, [r3, #4]
 80010b4:	81bb      	strh	r3, [r7, #12]
  
  /* Get the TIMx CCMR1 register value */
  tmpccmrx = TIMx->CCMR1;
 80010b6:	687b      	ldr	r3, [r7, #4]
 80010b8:	8b1b      	ldrh	r3, [r3, #24]
 80010ba:	817b      	strh	r3, [r7, #10]
    
  /* Reset the Output Compare mode and Capture/Compare selection Bits */
  tmpccmrx &= (uint16_t)(~((uint16_t)TIM_CCMR1_OC2M));
 80010bc:	897b      	ldrh	r3, [r7, #10]
 80010be:	f423 43e0 	bic.w	r3, r3, #28672	; 0x7000
 80010c2:	817b      	strh	r3, [r7, #10]
  tmpccmrx &= (uint16_t)(~((uint16_t)TIM_CCMR1_CC2S));
 80010c4:	897b      	ldrh	r3, [r7, #10]
 80010c6:	f423 7340 	bic.w	r3, r3, #768	; 0x300
 80010ca:	817b      	strh	r3, [r7, #10]
  
  /* Select the Output Compare Mode */
  tmpccmrx |= (uint16_t)(TIM_OCInitStruct->TIM_OCMode << 8);
 80010cc:	683b      	ldr	r3, [r7, #0]
 80010ce:	881b      	ldrh	r3, [r3, #0]
 80010d0:	021b      	lsls	r3, r3, #8
 80010d2:	b29a      	uxth	r2, r3
 80010d4:	897b      	ldrh	r3, [r7, #10]
 80010d6:	4313      	orrs	r3, r2
 80010d8:	817b      	strh	r3, [r7, #10]
  
  /* Reset the Output Polarity level */
  tmpccer &= (uint16_t)(~((uint16_t)TIM_CCER_CC2P));
 80010da:	89fb      	ldrh	r3, [r7, #14]
 80010dc:	f023 0320 	bic.w	r3, r3, #32
 80010e0:	81fb      	strh	r3, [r7, #14]
  /* Set the Output Compare Polarity */
  tmpccer |= (uint16_t)(TIM_OCInitStruct->TIM_OCPolarity << 4);
 80010e2:	683b      	ldr	r3, [r7, #0]
 80010e4:	891b      	ldrh	r3, [r3, #8]
 80010e6:	011b      	lsls	r3, r3, #4
 80010e8:	b29a      	uxth	r2, r3
 80010ea:	89fb      	ldrh	r3, [r7, #14]
 80010ec:	4313      	orrs	r3, r2
 80010ee:	81fb      	strh	r3, [r7, #14]
  
  /* Set the Output State */
  tmpccer |= (uint16_t)(TIM_OCInitStruct->TIM_OutputState << 4);
 80010f0:	683b      	ldr	r3, [r7, #0]
 80010f2:	885b      	ldrh	r3, [r3, #2]
 80010f4:	011b      	lsls	r3, r3, #4
 80010f6:	b29a      	uxth	r2, r3
 80010f8:	89fb      	ldrh	r3, [r7, #14]
 80010fa:	4313      	orrs	r3, r2
 80010fc:	81fb      	strh	r3, [r7, #14]
    
  if((TIMx == TIM1) || (TIMx == TIM8))
 80010fe:	687b      	ldr	r3, [r7, #4]
 8001100:	4a22      	ldr	r2, [pc, #136]	; (800118c <TIM_OC2Init+0x108>)
 8001102:	4293      	cmp	r3, r2
 8001104:	d003      	beq.n	800110e <TIM_OC2Init+0x8a>
 8001106:	687b      	ldr	r3, [r7, #4]
 8001108:	4a21      	ldr	r2, [pc, #132]	; (8001190 <TIM_OC2Init+0x10c>)
 800110a:	4293      	cmp	r3, r2
 800110c:	d12b      	bne.n	8001166 <TIM_OC2Init+0xe2>
    assert_param(IS_TIM_OCN_POLARITY(TIM_OCInitStruct->TIM_OCNPolarity));
    assert_param(IS_TIM_OCNIDLE_STATE(TIM_OCInitStruct->TIM_OCNIdleState));
    assert_param(IS_TIM_OCIDLE_STATE(TIM_OCInitStruct->TIM_OCIdleState));
    
    /* Reset the Output N Polarity level */
    tmpccer &= (uint16_t)(~((uint16_t)TIM_CCER_CC2NP));
 800110e:	89fb      	ldrh	r3, [r7, #14]
 8001110:	f023 0380 	bic.w	r3, r3, #128	; 0x80
 8001114:	81fb      	strh	r3, [r7, #14]
    /* Set the Output N Polarity */
    tmpccer |= (uint16_t)(TIM_OCInitStruct->TIM_OCNPolarity << 4);
 8001116:	683b      	ldr	r3, [r7, #0]
 8001118:	895b      	ldrh	r3, [r3, #10]
 800111a:	011b      	lsls	r3, r3, #4
 800111c:	b29a      	uxth	r2, r3
 800111e:	89fb      	ldrh	r3, [r7, #14]
 8001120:	4313      	orrs	r3, r2
 8001122:	81fb      	strh	r3, [r7, #14]
    
    /* Reset the Output N State */
    tmpccer &= (uint16_t)(~((uint16_t)TIM_CCER_CC2NE));    
 8001124:	89fb      	ldrh	r3, [r7, #14]
 8001126:	f023 0340 	bic.w	r3, r3, #64	; 0x40
 800112a:	81fb      	strh	r3, [r7, #14]
    /* Set the Output N State */
    tmpccer |= (uint16_t)(TIM_OCInitStruct->TIM_OutputNState << 4);
 800112c:	683b      	ldr	r3, [r7, #0]
 800112e:	889b      	ldrh	r3, [r3, #4]
 8001130:	011b      	lsls	r3, r3, #4
 8001132:	b29a      	uxth	r2, r3
 8001134:	89fb      	ldrh	r3, [r7, #14]
 8001136:	4313      	orrs	r3, r2
 8001138:	81fb      	strh	r3, [r7, #14]
    
    /* Reset the Output Compare and Output Compare N IDLE State */
    tmpcr2 &= (uint16_t)(~((uint16_t)TIM_CR2_OIS2));
 800113a:	89bb      	ldrh	r3, [r7, #12]
 800113c:	f423 6380 	bic.w	r3, r3, #1024	; 0x400
 8001140:	81bb      	strh	r3, [r7, #12]
    tmpcr2 &= (uint16_t)(~((uint16_t)TIM_CR2_OIS2N));
 8001142:	89bb      	ldrh	r3, [r7, #12]
 8001144:	f423 6300 	bic.w	r3, r3, #2048	; 0x800
 8001148:	81bb      	strh	r3, [r7, #12]
    
    /* Set the Output Idle state */
    tmpcr2 |= (uint16_t)(TIM_OCInitStruct->TIM_OCIdleState << 2);
 800114a:	683b      	ldr	r3, [r7, #0]
 800114c:	899b      	ldrh	r3, [r3, #12]
 800114e:	009b      	lsls	r3, r3, #2
 8001150:	b29a      	uxth	r2, r3
 8001152:	89bb      	ldrh	r3, [r7, #12]
 8001154:	4313      	orrs	r3, r2
 8001156:	81bb      	strh	r3, [r7, #12]
    /* Set the Output N Idle state */
    tmpcr2 |= (uint16_t)(TIM_OCInitStruct->TIM_OCNIdleState << 2);
 8001158:	683b      	ldr	r3, [r7, #0]
 800115a:	89db      	ldrh	r3, [r3, #14]
 800115c:	009b      	lsls	r3, r3, #2
 800115e:	b29a      	uxth	r2, r3
 8001160:	89bb      	ldrh	r3, [r7, #12]
 8001162:	4313      	orrs	r3, r2
 8001164:	81bb      	strh	r3, [r7, #12]
  }
  /* Write to TIMx CR2 */
  TIMx->CR2 = tmpcr2;
 8001166:	687b      	ldr	r3, [r7, #4]
 8001168:	89ba      	ldrh	r2, [r7, #12]
 800116a:	809a      	strh	r2, [r3, #4]
  
  /* Write to TIMx CCMR1 */
  TIMx->CCMR1 = tmpccmrx;
 800116c:	687b      	ldr	r3, [r7, #4]
 800116e:	897a      	ldrh	r2, [r7, #10]
 8001170:	831a      	strh	r2, [r3, #24]

  /* Set the Capture Compare Register value */
  TIMx->CCR2 = TIM_OCInitStruct->TIM_Pulse;
 8001172:	683b      	ldr	r3, [r7, #0]
 8001174:	88da      	ldrh	r2, [r3, #6]
 8001176:	687b      	ldr	r3, [r7, #4]
 8001178:	871a      	strh	r2, [r3, #56]	; 0x38
  
  /* Write to TIMx CCER */
  TIMx->CCER = tmpccer;
 800117a:	687b      	ldr	r3, [r7, #4]
 800117c:	89fa      	ldrh	r2, [r7, #14]
 800117e:	841a      	strh	r2, [r3, #32]
}
 8001180:	bf00      	nop
 8001182:	3714      	adds	r7, #20
 8001184:	46bd      	mov	sp, r7
 8001186:	bc80      	pop	{r7}
 8001188:	4770      	bx	lr
 800118a:	bf00      	nop
 800118c:	40012c00 	.word	0x40012c00
 8001190:	40013400 	.word	0x40013400

08001194 <TIM_OC3Init>:
  * @param  TIM_OCInitStruct: pointer to a TIM_OCInitTypeDef structure
  *         that contains the configuration information for the specified TIM peripheral.
  * @retval None
  */
void TIM_OC3Init(TIM_TypeDef* TIMx, TIM_OCInitTypeDef* TIM_OCInitStruct)
{
 8001194:	b480      	push	{r7}
 8001196:	b085      	sub	sp, #20
 8001198:	af00      	add	r7, sp, #0
 800119a:	6078      	str	r0, [r7, #4]
 800119c:	6039      	str	r1, [r7, #0]
  uint16_t tmpccmrx = 0, tmpccer = 0, tmpcr2 = 0;
 800119e:	2300      	movs	r3, #0
 80011a0:	817b      	strh	r3, [r7, #10]
 80011a2:	2300      	movs	r3, #0
 80011a4:	81fb      	strh	r3, [r7, #14]
 80011a6:	2300      	movs	r3, #0
 80011a8:	81bb      	strh	r3, [r7, #12]
  assert_param(IS_TIM_LIST3_PERIPH(TIMx)); 
  assert_param(IS_TIM_OC_MODE(TIM_OCInitStruct->TIM_OCMode));
  assert_param(IS_TIM_OUTPUT_STATE(TIM_OCInitStruct->TIM_OutputState));
  assert_param(IS_TIM_OC_POLARITY(TIM_OCInitStruct->TIM_OCPolarity));   
  /* Disable the Channel 2: Reset the CC2E Bit */
  TIMx->CCER &= (uint16_t)(~((uint16_t)TIM_CCER_CC3E));
 80011aa:	687b      	ldr	r3, [r7, #4]
 80011ac:	8c1b      	ldrh	r3, [r3, #32]
 80011ae:	b29b      	uxth	r3, r3
 80011b0:	f423 7380 	bic.w	r3, r3, #256	; 0x100
 80011b4:	b29a      	uxth	r2, r3
 80011b6:	687b      	ldr	r3, [r7, #4]
 80011b8:	841a      	strh	r2, [r3, #32]
  
  /* Get the TIMx CCER register value */
  tmpccer = TIMx->CCER;
 80011ba:	687b      	ldr	r3, [r7, #4]
 80011bc:	8c1b      	ldrh	r3, [r3, #32]
 80011be:	81fb      	strh	r3, [r7, #14]
  /* Get the TIMx CR2 register value */
  tmpcr2 =  TIMx->CR2;
 80011c0:	687b      	ldr	r3, [r7, #4]
 80011c2:	889b      	ldrh	r3, [r3, #4]
 80011c4:	81bb      	strh	r3, [r7, #12]
  
  /* Get the TIMx CCMR2 register value */
  tmpccmrx = TIMx->CCMR2;
 80011c6:	687b      	ldr	r3, [r7, #4]
 80011c8:	8b9b      	ldrh	r3, [r3, #28]
 80011ca:	817b      	strh	r3, [r7, #10]
    
  /* Reset the Output Compare mode and Capture/Compare selection Bits */
  tmpccmrx &= (uint16_t)(~((uint16_t)TIM_CCMR2_OC3M));
 80011cc:	897b      	ldrh	r3, [r7, #10]
 80011ce:	f023 0370 	bic.w	r3, r3, #112	; 0x70
 80011d2:	817b      	strh	r3, [r7, #10]
  tmpccmrx &= (uint16_t)(~((uint16_t)TIM_CCMR2_CC3S));  
 80011d4:	897b      	ldrh	r3, [r7, #10]
 80011d6:	f023 0303 	bic.w	r3, r3, #3
 80011da:	817b      	strh	r3, [r7, #10]
  /* Select the Output Compare Mode */
  tmpccmrx |= TIM_OCInitStruct->TIM_OCMode;
 80011dc:	683b      	ldr	r3, [r7, #0]
 80011de:	881a      	ldrh	r2, [r3, #0]
 80011e0:	897b      	ldrh	r3, [r7, #10]
 80011e2:	4313      	orrs	r3, r2
 80011e4:	817b      	strh	r3, [r7, #10]
  
  /* Reset the Output Polarity level */
  tmpccer &= (uint16_t)(~((uint16_t)TIM_CCER_CC3P));
 80011e6:	89fb      	ldrh	r3, [r7, #14]
 80011e8:	f423 7300 	bic.w	r3, r3, #512	; 0x200
 80011ec:	81fb      	strh	r3, [r7, #14]
  /* Set the Output Compare Polarity */
  tmpccer |= (uint16_t)(TIM_OCInitStruct->TIM_OCPolarity << 8);
 80011ee:	683b      	ldr	r3, [r7, #0]
 80011f0:	891b      	ldrh	r3, [r3, #8]
 80011f2:	021b      	lsls	r3, r3, #8
 80011f4:	b29a      	uxth	r2, r3
 80011f6:	89fb      	ldrh	r3, [r7, #14]
 80011f8:	4313      	orrs	r3, r2
 80011fa:	81fb      	strh	r3, [r7, #14]
  
  /* Set the Output State */
  tmpccer |= (uint16_t)(TIM_OCInitStruct->TIM_OutputState << 8);
 80011fc:	683b      	ldr	r3, [r7, #0]
 80011fe:	885b      	ldrh	r3, [r3, #2]
 8001200:	021b      	lsls	r3, r3, #8
 8001202:	b29a      	uxth	r2, r3
 8001204:	89fb      	ldrh	r3, [r7, #14]
 8001206:	4313      	orrs	r3, r2
 8001208:	81fb      	strh	r3, [r7, #14]
    
  if((TIMx == TIM1) || (TIMx == TIM8))
 800120a:	687b      	ldr	r3, [r7, #4]
 800120c:	4a22      	ldr	r2, [pc, #136]	; (8001298 <TIM_OC3Init+0x104>)
 800120e:	4293      	cmp	r3, r2
 8001210:	d003      	beq.n	800121a <TIM_OC3Init+0x86>
 8001212:	687b      	ldr	r3, [r7, #4]
 8001214:	4a21      	ldr	r2, [pc, #132]	; (800129c <TIM_OC3Init+0x108>)
 8001216:	4293      	cmp	r3, r2
 8001218:	d12b      	bne.n	8001272 <TIM_OC3Init+0xde>
    assert_param(IS_TIM_OCN_POLARITY(TIM_OCInitStruct->TIM_OCNPolarity));
    assert_param(IS_TIM_OCNIDLE_STATE(TIM_OCInitStruct->TIM_OCNIdleState));
    assert_param(IS_TIM_OCIDLE_STATE(TIM_OCInitStruct->TIM_OCIdleState));
    
    /* Reset the Output N Polarity level */
    tmpccer &= (uint16_t)(~((uint16_t)TIM_CCER_CC3NP));
 800121a:	89fb      	ldrh	r3, [r7, #14]
 800121c:	f423 6300 	bic.w	r3, r3, #2048	; 0x800
 8001220:	81fb      	strh	r3, [r7, #14]
    /* Set the Output N Polarity */
    tmpccer |= (uint16_t)(TIM_OCInitStruct->TIM_OCNPolarity << 8);
 8001222:	683b      	ldr	r3, [r7, #0]
 8001224:	895b      	ldrh	r3, [r3, #10]
 8001226:	021b      	lsls	r3, r3, #8
 8001228:	b29a      	uxth	r2, r3
 800122a:	89fb      	ldrh	r3, [r7, #14]
 800122c:	4313      	orrs	r3, r2
 800122e:	81fb      	strh	r3, [r7, #14]
    /* Reset the Output N State */
    tmpccer &= (uint16_t)(~((uint16_t)TIM_CCER_CC3NE));
 8001230:	89fb      	ldrh	r3, [r7, #14]
 8001232:	f423 6380 	bic.w	r3, r3, #1024	; 0x400
 8001236:	81fb      	strh	r3, [r7, #14]
    
    /* Set the Output N State */
    tmpccer |= (uint16_t)(TIM_OCInitStruct->TIM_OutputNState << 8);
 8001238:	683b      	ldr	r3, [r7, #0]
 800123a:	889b      	ldrh	r3, [r3, #4]
 800123c:	021b      	lsls	r3, r3, #8
 800123e:	b29a      	uxth	r2, r3
 8001240:	89fb      	ldrh	r3, [r7, #14]
 8001242:	4313      	orrs	r3, r2
 8001244:	81fb      	strh	r3, [r7, #14]
    /* Reset the Output Compare and Output Compare N IDLE State */
    tmpcr2 &= (uint16_t)(~((uint16_t)TIM_CR2_OIS3));
 8001246:	89bb      	ldrh	r3, [r7, #12]
 8001248:	f423 5380 	bic.w	r3, r3, #4096	; 0x1000
 800124c:	81bb      	strh	r3, [r7, #12]
    tmpcr2 &= (uint16_t)(~((uint16_t)TIM_CR2_OIS3N));
 800124e:	89bb      	ldrh	r3, [r7, #12]
 8001250:	f423 5300 	bic.w	r3, r3, #8192	; 0x2000
 8001254:	81bb      	strh	r3, [r7, #12]
    /* Set the Output Idle state */
    tmpcr2 |= (uint16_t)(TIM_OCInitStruct->TIM_OCIdleState << 4);
 8001256:	683b      	ldr	r3, [r7, #0]
 8001258:	899b      	ldrh	r3, [r3, #12]
 800125a:	011b      	lsls	r3, r3, #4
 800125c:	b29a      	uxth	r2, r3
 800125e:	89bb      	ldrh	r3, [r7, #12]
 8001260:	4313      	orrs	r3, r2
 8001262:	81bb      	strh	r3, [r7, #12]
    /* Set the Output N Idle state */
    tmpcr2 |= (uint16_t)(TIM_OCInitStruct->TIM_OCNIdleState << 4);
 8001264:	683b      	ldr	r3, [r7, #0]
 8001266:	89db      	ldrh	r3, [r3, #14]
 8001268:	011b      	lsls	r3, r3, #4
 800126a:	b29a      	uxth	r2, r3
 800126c:	89bb      	ldrh	r3, [r7, #12]
 800126e:	4313      	orrs	r3, r2
 8001270:	81bb      	strh	r3, [r7, #12]
  }
  /* Write to TIMx CR2 */
  TIMx->CR2 = tmpcr2;
 8001272:	687b      	ldr	r3, [r7, #4]
 8001274:	89ba      	ldrh	r2, [r7, #12]
 8001276:	809a      	strh	r2, [r3, #4]
  
  /* Write to TIMx CCMR2 */
  TIMx->CCMR2 = tmpccmrx;
 8001278:	687b      	ldr	r3, [r7, #4]
 800127a:	897a      	ldrh	r2, [r7, #10]
 800127c:	839a      	strh	r2, [r3, #28]

  /* Set the Capture Compare Register value */
  TIMx->CCR3 = TIM_OCInitStruct->TIM_Pulse;
 800127e:	683b      	ldr	r3, [r7, #0]
 8001280:	88da      	ldrh	r2, [r3, #6]
 8001282:	687b      	ldr	r3, [r7, #4]
 8001284:	879a      	strh	r2, [r3, #60]	; 0x3c
  
  /* Write to TIMx CCER */
  TIMx->CCER = tmpccer;
 8001286:	687b      	ldr	r3, [r7, #4]
 8001288:	89fa      	ldrh	r2, [r7, #14]
 800128a:	841a      	strh	r2, [r3, #32]
}
 800128c:	bf00      	nop
 800128e:	3714      	adds	r7, #20
 8001290:	46bd      	mov	sp, r7
 8001292:	bc80      	pop	{r7}
 8001294:	4770      	bx	lr
 8001296:	bf00      	nop
 8001298:	40012c00 	.word	0x40012c00
 800129c:	40013400 	.word	0x40013400

080012a0 <TIM_OC4Init>:
  * @param  TIM_OCInitStruct: pointer to a TIM_OCInitTypeDef structure
  *         that contains the configuration information for the specified TIM peripheral.
  * @retval None
  */
void TIM_OC4Init(TIM_TypeDef* TIMx, TIM_OCInitTypeDef* TIM_OCInitStruct)
{
 80012a0:	b480      	push	{r7}
 80012a2:	b085      	sub	sp, #20
 80012a4:	af00      	add	r7, sp, #0
 80012a6:	6078      	str	r0, [r7, #4]
 80012a8:	6039      	str	r1, [r7, #0]
  uint16_t tmpccmrx = 0, tmpccer = 0, tmpcr2 = 0;
 80012aa:	2300      	movs	r3, #0
 80012ac:	81bb      	strh	r3, [r7, #12]
 80012ae:	2300      	movs	r3, #0
 80012b0:	817b      	strh	r3, [r7, #10]
 80012b2:	2300      	movs	r3, #0
 80012b4:	81fb      	strh	r3, [r7, #14]
  assert_param(IS_TIM_LIST3_PERIPH(TIMx)); 
  assert_param(IS_TIM_OC_MODE(TIM_OCInitStruct->TIM_OCMode));
  assert_param(IS_TIM_OUTPUT_STATE(TIM_OCInitStruct->TIM_OutputState));
  assert_param(IS_TIM_OC_POLARITY(TIM_OCInitStruct->TIM_OCPolarity));   
  /* Disable the Channel 2: Reset the CC4E Bit */
  TIMx->CCER &= (uint16_t)(~((uint16_t)TIM_CCER_CC4E));
 80012b6:	687b      	ldr	r3, [r7, #4]
 80012b8:	8c1b      	ldrh	r3, [r3, #32]
 80012ba:	b29b      	uxth	r3, r3
 80012bc:	f423 5380 	bic.w	r3, r3, #4096	; 0x1000
 80012c0:	b29a      	uxth	r2, r3
 80012c2:	687b      	ldr	r3, [r7, #4]
 80012c4:	841a      	strh	r2, [r3, #32]
  
  /* Get the TIMx CCER register value */
  tmpccer = TIMx->CCER;
 80012c6:	687b      	ldr	r3, [r7, #4]
 80012c8:	8c1b      	ldrh	r3, [r3, #32]
 80012ca:	817b      	strh	r3, [r7, #10]
  /* Get the TIMx CR2 register value */
  tmpcr2 =  TIMx->CR2;
 80012cc:	687b      	ldr	r3, [r7, #4]
 80012ce:	889b      	ldrh	r3, [r3, #4]
 80012d0:	81fb      	strh	r3, [r7, #14]
  
  /* Get the TIMx CCMR2 register value */
  tmpccmrx = TIMx->CCMR2;
 80012d2:	687b      	ldr	r3, [r7, #4]
 80012d4:	8b9b      	ldrh	r3, [r3, #28]
 80012d6:	81bb      	strh	r3, [r7, #12]
    
  /* Reset the Output Compare mode and Capture/Compare selection Bits */
  tmpccmrx &= (uint16_t)(~((uint16_t)TIM_CCMR2_OC4M));
 80012d8:	89bb      	ldrh	r3, [r7, #12]
 80012da:	f423 43e0 	bic.w	r3, r3, #28672	; 0x7000
 80012de:	81bb      	strh	r3, [r7, #12]
  tmpccmrx &= (uint16_t)(~((uint16_t)TIM_CCMR2_CC4S));
 80012e0:	89bb      	ldrh	r3, [r7, #12]
 80012e2:	f423 7340 	bic.w	r3, r3, #768	; 0x300
 80012e6:	81bb      	strh	r3, [r7, #12]
  
  /* Select the Output Compare Mode */
  tmpccmrx |= (uint16_t)(TIM_OCInitStruct->TIM_OCMode << 8);
 80012e8:	683b      	ldr	r3, [r7, #0]
 80012ea:	881b      	ldrh	r3, [r3, #0]
 80012ec:	021b      	lsls	r3, r3, #8
 80012ee:	b29a      	uxth	r2, r3
 80012f0:	89bb      	ldrh	r3, [r7, #12]
 80012f2:	4313      	orrs	r3, r2
 80012f4:	81bb      	strh	r3, [r7, #12]
  
  /* Reset the Output Polarity level */
  tmpccer &= (uint16_t)(~((uint16_t)TIM_CCER_CC4P));
 80012f6:	897b      	ldrh	r3, [r7, #10]
 80012f8:	f423 5300 	bic.w	r3, r3, #8192	; 0x2000
 80012fc:	817b      	strh	r3, [r7, #10]
  /* Set the Output Compare Polarity */
  tmpccer |= (uint16_t)(TIM_OCInitStruct->TIM_OCPolarity << 12);
 80012fe:	683b      	ldr	r3, [r7, #0]
 8001300:	891b      	ldrh	r3, [r3, #8]
 8001302:	031b      	lsls	r3, r3, #12
 8001304:	b29a      	uxth	r2, r3
 8001306:	897b      	ldrh	r3, [r7, #10]
 8001308:	4313      	orrs	r3, r2
 800130a:	817b      	strh	r3, [r7, #10]
  
  /* Set the Output State */
  tmpccer |= (uint16_t)(TIM_OCInitStruct->TIM_OutputState << 12);
 800130c:	683b      	ldr	r3, [r7, #0]
 800130e:	885b      	ldrh	r3, [r3, #2]
 8001310:	031b      	lsls	r3, r3, #12
 8001312:	b29a      	uxth	r2, r3
 8001314:	897b      	ldrh	r3, [r7, #10]
 8001316:	4313      	orrs	r3, r2
 8001318:	817b      	strh	r3, [r7, #10]
    
  if((TIMx == TIM1) || (TIMx == TIM8))
 800131a:	687b      	ldr	r3, [r7, #4]
 800131c:	4a12      	ldr	r2, [pc, #72]	; (8001368 <TIM_OC4Init+0xc8>)
 800131e:	4293      	cmp	r3, r2
 8001320:	d003      	beq.n	800132a <TIM_OC4Init+0x8a>
 8001322:	687b      	ldr	r3, [r7, #4]
 8001324:	4a11      	ldr	r2, [pc, #68]	; (800136c <TIM_OC4Init+0xcc>)
 8001326:	4293      	cmp	r3, r2
 8001328:	d10a      	bne.n	8001340 <TIM_OC4Init+0xa0>
  {
    assert_param(IS_TIM_OCIDLE_STATE(TIM_OCInitStruct->TIM_OCIdleState));
    /* Reset the Output Compare IDLE State */
    tmpcr2 &= (uint16_t)(~((uint16_t)TIM_CR2_OIS4));
 800132a:	89fb      	ldrh	r3, [r7, #14]
 800132c:	f423 4380 	bic.w	r3, r3, #16384	; 0x4000
 8001330:	81fb      	strh	r3, [r7, #14]
    /* Set the Output Idle state */
    tmpcr2 |= (uint16_t)(TIM_OCInitStruct->TIM_OCIdleState << 6);
 8001332:	683b      	ldr	r3, [r7, #0]
 8001334:	899b      	ldrh	r3, [r3, #12]
 8001336:	019b      	lsls	r3, r3, #6
 8001338:	b29a      	uxth	r2, r3
 800133a:	89fb      	ldrh	r3, [r7, #14]
 800133c:	4313      	orrs	r3, r2
 800133e:	81fb      	strh	r3, [r7, #14]
  }
  /* Write to TIMx CR2 */
  TIMx->CR2 = tmpcr2;
 8001340:	687b      	ldr	r3, [r7, #4]
 8001342:	89fa      	ldrh	r2, [r7, #14]
 8001344:	809a      	strh	r2, [r3, #4]
  
  /* Write to TIMx CCMR2 */  
  TIMx->CCMR2 = tmpccmrx;
 8001346:	687b      	ldr	r3, [r7, #4]
 8001348:	89ba      	ldrh	r2, [r7, #12]
 800134a:	839a      	strh	r2, [r3, #28]

  /* Set the Capture Compare Register value */
  TIMx->CCR4 = TIM_OCInitStruct->TIM_Pulse;
 800134c:	683b      	ldr	r3, [r7, #0]
 800134e:	88da      	ldrh	r2, [r3, #6]
 8001350:	687b      	ldr	r3, [r7, #4]
 8001352:	f8a3 2040 	strh.w	r2, [r3, #64]	; 0x40
  
  /* Write to TIMx CCER */
  TIMx->CCER = tmpccer;
 8001356:	687b      	ldr	r3, [r7, #4]
 8001358:	897a      	ldrh	r2, [r7, #10]
 800135a:	841a      	strh	r2, [r3, #32]
}
 800135c:	bf00      	nop
 800135e:	3714      	adds	r7, #20
 8001360:	46bd      	mov	sp, r7
 8001362:	bc80      	pop	{r7}
 8001364:	4770      	bx	lr
 8001366:	bf00      	nop
 8001368:	40012c00 	.word	0x40012c00
 800136c:	40013400 	.word	0x40013400

08001370 <TIM_Cmd>:
  * @param  NewState: new state of the TIMx peripheral.
  *   This parameter can be: ENABLE or DISABLE.
  * @retval None
  */
void TIM_Cmd(TIM_TypeDef* TIMx, FunctionalState NewState)
{
 8001370:	b480      	push	{r7}
 8001372:	b083      	sub	sp, #12
 8001374:	af00      	add	r7, sp, #0
 8001376:	6078      	str	r0, [r7, #4]
 8001378:	460b      	mov	r3, r1
 800137a:	70fb      	strb	r3, [r7, #3]
  /* Check the parameters */
  assert_param(IS_TIM_ALL_PERIPH(TIMx));
  assert_param(IS_FUNCTIONAL_STATE(NewState));
  
  if (NewState != DISABLE)
 800137c:	78fb      	ldrb	r3, [r7, #3]
 800137e:	2b00      	cmp	r3, #0
 8001380:	d008      	beq.n	8001394 <TIM_Cmd+0x24>
  {
    /* Enable the TIM Counter */
    TIMx->CR1 |= TIM_CR1_CEN;
 8001382:	687b      	ldr	r3, [r7, #4]
 8001384:	881b      	ldrh	r3, [r3, #0]
 8001386:	b29b      	uxth	r3, r3
 8001388:	f043 0301 	orr.w	r3, r3, #1
 800138c:	b29a      	uxth	r2, r3
 800138e:	687b      	ldr	r3, [r7, #4]
 8001390:	801a      	strh	r2, [r3, #0]
  else
  {
    /* Disable the TIM Counter */
    TIMx->CR1 &= (uint16_t)(~((uint16_t)TIM_CR1_CEN));
  }
}
 8001392:	e007      	b.n	80013a4 <TIM_Cmd+0x34>
    TIMx->CR1 &= (uint16_t)(~((uint16_t)TIM_CR1_CEN));
 8001394:	687b      	ldr	r3, [r7, #4]
 8001396:	881b      	ldrh	r3, [r3, #0]
 8001398:	b29b      	uxth	r3, r3
 800139a:	f023 0301 	bic.w	r3, r3, #1
 800139e:	b29a      	uxth	r2, r3
 80013a0:	687b      	ldr	r3, [r7, #4]
 80013a2:	801a      	strh	r2, [r3, #0]
}
 80013a4:	bf00      	nop
 80013a6:	370c      	adds	r7, #12
 80013a8:	46bd      	mov	sp, r7
 80013aa:	bc80      	pop	{r7}
 80013ac:	4770      	bx	lr

080013ae <TIM_ITConfig>:
  * @param  NewState: new state of the TIM interrupts.
  *   This parameter can be: ENABLE or DISABLE.
  * @retval None
  */
void TIM_ITConfig(TIM_TypeDef* TIMx, uint16_t TIM_IT, FunctionalState NewState)
{  
 80013ae:	b480      	push	{r7}
 80013b0:	b083      	sub	sp, #12
 80013b2:	af00      	add	r7, sp, #0
 80013b4:	6078      	str	r0, [r7, #4]
 80013b6:	460b      	mov	r3, r1
 80013b8:	807b      	strh	r3, [r7, #2]
 80013ba:	4613      	mov	r3, r2
 80013bc:	707b      	strb	r3, [r7, #1]
  /* Check the parameters */
  assert_param(IS_TIM_ALL_PERIPH(TIMx));
  assert_param(IS_TIM_IT(TIM_IT));
  assert_param(IS_FUNCTIONAL_STATE(NewState));
  
  if (NewState != DISABLE)
 80013be:	787b      	ldrb	r3, [r7, #1]
 80013c0:	2b00      	cmp	r3, #0
 80013c2:	d008      	beq.n	80013d6 <TIM_ITConfig+0x28>
  {
    /* Enable the Interrupt sources */
    TIMx->DIER |= TIM_IT;
 80013c4:	687b      	ldr	r3, [r7, #4]
 80013c6:	899b      	ldrh	r3, [r3, #12]
 80013c8:	b29a      	uxth	r2, r3
 80013ca:	887b      	ldrh	r3, [r7, #2]
 80013cc:	4313      	orrs	r3, r2
 80013ce:	b29a      	uxth	r2, r3
 80013d0:	687b      	ldr	r3, [r7, #4]
 80013d2:	819a      	strh	r2, [r3, #12]
  else
  {
    /* Disable the Interrupt sources */
    TIMx->DIER &= (uint16_t)~TIM_IT;
  }
}
 80013d4:	e009      	b.n	80013ea <TIM_ITConfig+0x3c>
    TIMx->DIER &= (uint16_t)~TIM_IT;
 80013d6:	687b      	ldr	r3, [r7, #4]
 80013d8:	899b      	ldrh	r3, [r3, #12]
 80013da:	b29a      	uxth	r2, r3
 80013dc:	887b      	ldrh	r3, [r7, #2]
 80013de:	43db      	mvns	r3, r3
 80013e0:	b29b      	uxth	r3, r3
 80013e2:	4013      	ands	r3, r2
 80013e4:	b29a      	uxth	r2, r3
 80013e6:	687b      	ldr	r3, [r7, #4]
 80013e8:	819a      	strh	r2, [r3, #12]
}
 80013ea:	bf00      	nop
 80013ec:	370c      	adds	r7, #12
 80013ee:	46bd      	mov	sp, r7
 80013f0:	bc80      	pop	{r7}
 80013f2:	4770      	bx	lr

080013f4 <TIM_ARRPreloadConfig>:
  * @param  NewState: new state of the TIMx peripheral Preload register
  *   This parameter can be: ENABLE or DISABLE.
  * @retval None
  */
void TIM_ARRPreloadConfig(TIM_TypeDef* TIMx, FunctionalState NewState)
{
 80013f4:	b480      	push	{r7}
 80013f6:	b083      	sub	sp, #12
 80013f8:	af00      	add	r7, sp, #0
 80013fa:	6078      	str	r0, [r7, #4]
 80013fc:	460b      	mov	r3, r1
 80013fe:	70fb      	strb	r3, [r7, #3]
  /* Check the parameters */
  assert_param(IS_TIM_ALL_PERIPH(TIMx));
  assert_param(IS_FUNCTIONAL_STATE(NewState));
  if (NewState != DISABLE)
 8001400:	78fb      	ldrb	r3, [r7, #3]
 8001402:	2b00      	cmp	r3, #0
 8001404:	d008      	beq.n	8001418 <TIM_ARRPreloadConfig+0x24>
  {
    /* Set the ARR Preload Bit */
    TIMx->CR1 |= TIM_CR1_ARPE;
 8001406:	687b      	ldr	r3, [r7, #4]
 8001408:	881b      	ldrh	r3, [r3, #0]
 800140a:	b29b      	uxth	r3, r3
 800140c:	f043 0380 	orr.w	r3, r3, #128	; 0x80
 8001410:	b29a      	uxth	r2, r3
 8001412:	687b      	ldr	r3, [r7, #4]
 8001414:	801a      	strh	r2, [r3, #0]
  else
  {
    /* Reset the ARR Preload Bit */
    TIMx->CR1 &= (uint16_t)~((uint16_t)TIM_CR1_ARPE);
  }
}
 8001416:	e007      	b.n	8001428 <TIM_ARRPreloadConfig+0x34>
    TIMx->CR1 &= (uint16_t)~((uint16_t)TIM_CR1_ARPE);
 8001418:	687b      	ldr	r3, [r7, #4]
 800141a:	881b      	ldrh	r3, [r3, #0]
 800141c:	b29b      	uxth	r3, r3
 800141e:	f023 0380 	bic.w	r3, r3, #128	; 0x80
 8001422:	b29a      	uxth	r2, r3
 8001424:	687b      	ldr	r3, [r7, #4]
 8001426:	801a      	strh	r2, [r3, #0]
}
 8001428:	bf00      	nop
 800142a:	370c      	adds	r7, #12
 800142c:	46bd      	mov	sp, r7
 800142e:	bc80      	pop	{r7}
 8001430:	4770      	bx	lr

08001432 <TIM_OC1PreloadConfig>:
  *     @arg TIM_OCPreload_Enable
  *     @arg TIM_OCPreload_Disable
  * @retval None
  */
void TIM_OC1PreloadConfig(TIM_TypeDef* TIMx, uint16_t TIM_OCPreload)
{
 8001432:	b480      	push	{r7}
 8001434:	b085      	sub	sp, #20
 8001436:	af00      	add	r7, sp, #0
 8001438:	6078      	str	r0, [r7, #4]
 800143a:	460b      	mov	r3, r1
 800143c:	807b      	strh	r3, [r7, #2]
  uint16_t tmpccmr1 = 0;
 800143e:	2300      	movs	r3, #0
 8001440:	81fb      	strh	r3, [r7, #14]
  /* Check the parameters */
  assert_param(IS_TIM_LIST8_PERIPH(TIMx));
  assert_param(IS_TIM_OCPRELOAD_STATE(TIM_OCPreload));
  tmpccmr1 = TIMx->CCMR1;
 8001442:	687b      	ldr	r3, [r7, #4]
 8001444:	8b1b      	ldrh	r3, [r3, #24]
 8001446:	81fb      	strh	r3, [r7, #14]
  /* Reset the OC1PE Bit */
  tmpccmr1 &= (uint16_t)~((uint16_t)TIM_CCMR1_OC1PE);
 8001448:	89fb      	ldrh	r3, [r7, #14]
 800144a:	f023 0308 	bic.w	r3, r3, #8
 800144e:	81fb      	strh	r3, [r7, #14]
  /* Enable or Disable the Output Compare Preload feature */
  tmpccmr1 |= TIM_OCPreload;
 8001450:	89fa      	ldrh	r2, [r7, #14]
 8001452:	887b      	ldrh	r3, [r7, #2]
 8001454:	4313      	orrs	r3, r2
 8001456:	81fb      	strh	r3, [r7, #14]
  /* Write to TIMx CCMR1 register */
  TIMx->CCMR1 = tmpccmr1;
 8001458:	687b      	ldr	r3, [r7, #4]
 800145a:	89fa      	ldrh	r2, [r7, #14]
 800145c:	831a      	strh	r2, [r3, #24]
}
 800145e:	bf00      	nop
 8001460:	3714      	adds	r7, #20
 8001462:	46bd      	mov	sp, r7
 8001464:	bc80      	pop	{r7}
 8001466:	4770      	bx	lr

08001468 <TIM_OC2PreloadConfig>:
  *     @arg TIM_OCPreload_Enable
  *     @arg TIM_OCPreload_Disable
  * @retval None
  */
void TIM_OC2PreloadConfig(TIM_TypeDef* TIMx, uint16_t TIM_OCPreload)
{
 8001468:	b480      	push	{r7}
 800146a:	b085      	sub	sp, #20
 800146c:	af00      	add	r7, sp, #0
 800146e:	6078      	str	r0, [r7, #4]
 8001470:	460b      	mov	r3, r1
 8001472:	807b      	strh	r3, [r7, #2]
  uint16_t tmpccmr1 = 0;
 8001474:	2300      	movs	r3, #0
 8001476:	81fb      	strh	r3, [r7, #14]
  /* Check the parameters */
  assert_param(IS_TIM_LIST6_PERIPH(TIMx));
  assert_param(IS_TIM_OCPRELOAD_STATE(TIM_OCPreload));
  tmpccmr1 = TIMx->CCMR1;
 8001478:	687b      	ldr	r3, [r7, #4]
 800147a:	8b1b      	ldrh	r3, [r3, #24]
 800147c:	81fb      	strh	r3, [r7, #14]
  /* Reset the OC2PE Bit */
  tmpccmr1 &= (uint16_t)~((uint16_t)TIM_CCMR1_OC2PE);
 800147e:	89fb      	ldrh	r3, [r7, #14]
 8001480:	f423 6300 	bic.w	r3, r3, #2048	; 0x800
 8001484:	81fb      	strh	r3, [r7, #14]
  /* Enable or Disable the Output Compare Preload feature */
  tmpccmr1 |= (uint16_t)(TIM_OCPreload << 8);
 8001486:	887b      	ldrh	r3, [r7, #2]
 8001488:	021b      	lsls	r3, r3, #8
 800148a:	b29a      	uxth	r2, r3
 800148c:	89fb      	ldrh	r3, [r7, #14]
 800148e:	4313      	orrs	r3, r2
 8001490:	81fb      	strh	r3, [r7, #14]
  /* Write to TIMx CCMR1 register */
  TIMx->CCMR1 = tmpccmr1;
 8001492:	687b      	ldr	r3, [r7, #4]
 8001494:	89fa      	ldrh	r2, [r7, #14]
 8001496:	831a      	strh	r2, [r3, #24]
}
 8001498:	bf00      	nop
 800149a:	3714      	adds	r7, #20
 800149c:	46bd      	mov	sp, r7
 800149e:	bc80      	pop	{r7}
 80014a0:	4770      	bx	lr

080014a2 <TIM_OC3PreloadConfig>:
  *     @arg TIM_OCPreload_Enable
  *     @arg TIM_OCPreload_Disable
  * @retval None
  */
void TIM_OC3PreloadConfig(TIM_TypeDef* TIMx, uint16_t TIM_OCPreload)
{
 80014a2:	b480      	push	{r7}
 80014a4:	b085      	sub	sp, #20
 80014a6:	af00      	add	r7, sp, #0
 80014a8:	6078      	str	r0, [r7, #4]
 80014aa:	460b      	mov	r3, r1
 80014ac:	807b      	strh	r3, [r7, #2]
  uint16_t tmpccmr2 = 0;
 80014ae:	2300      	movs	r3, #0
 80014b0:	81fb      	strh	r3, [r7, #14]
  /* Check the parameters */
  assert_param(IS_TIM_LIST3_PERIPH(TIMx));
  assert_param(IS_TIM_OCPRELOAD_STATE(TIM_OCPreload));
  tmpccmr2 = TIMx->CCMR2;
 80014b2:	687b      	ldr	r3, [r7, #4]
 80014b4:	8b9b      	ldrh	r3, [r3, #28]
 80014b6:	81fb      	strh	r3, [r7, #14]
  /* Reset the OC3PE Bit */
  tmpccmr2 &= (uint16_t)~((uint16_t)TIM_CCMR2_OC3PE);
 80014b8:	89fb      	ldrh	r3, [r7, #14]
 80014ba:	f023 0308 	bic.w	r3, r3, #8
 80014be:	81fb      	strh	r3, [r7, #14]
  /* Enable or Disable the Output Compare Preload feature */
  tmpccmr2 |= TIM_OCPreload;
 80014c0:	89fa      	ldrh	r2, [r7, #14]
 80014c2:	887b      	ldrh	r3, [r7, #2]
 80014c4:	4313      	orrs	r3, r2
 80014c6:	81fb      	strh	r3, [r7, #14]
  /* Write to TIMx CCMR2 register */
  TIMx->CCMR2 = tmpccmr2;
 80014c8:	687b      	ldr	r3, [r7, #4]
 80014ca:	89fa      	ldrh	r2, [r7, #14]
 80014cc:	839a      	strh	r2, [r3, #28]
}
 80014ce:	bf00      	nop
 80014d0:	3714      	adds	r7, #20
 80014d2:	46bd      	mov	sp, r7
 80014d4:	bc80      	pop	{r7}
 80014d6:	4770      	bx	lr

080014d8 <TIM_OC4PreloadConfig>:
  *     @arg TIM_OCPreload_Enable
  *     @arg TIM_OCPreload_Disable
  * @retval None
  */
void TIM_OC4PreloadConfig(TIM_TypeDef* TIMx, uint16_t TIM_OCPreload)
{
 80014d8:	b480      	push	{r7}
 80014da:	b085      	sub	sp, #20
 80014dc:	af00      	add	r7, sp, #0
 80014de:	6078      	str	r0, [r7, #4]
 80014e0:	460b      	mov	r3, r1
 80014e2:	807b      	strh	r3, [r7, #2]
  uint16_t tmpccmr2 = 0;
 80014e4:	2300      	movs	r3, #0
 80014e6:	81fb      	strh	r3, [r7, #14]
  /* Check the parameters */
  assert_param(IS_TIM_LIST3_PERIPH(TIMx));
  assert_param(IS_TIM_OCPRELOAD_STATE(TIM_OCPreload));
  tmpccmr2 = TIMx->CCMR2;
 80014e8:	687b      	ldr	r3, [r7, #4]
 80014ea:	8b9b      	ldrh	r3, [r3, #28]
 80014ec:	81fb      	strh	r3, [r7, #14]
  /* Reset the OC4PE Bit */
  tmpccmr2 &= (uint16_t)~((uint16_t)TIM_CCMR2_OC4PE);
 80014ee:	89fb      	ldrh	r3, [r7, #14]
 80014f0:	f423 6300 	bic.w	r3, r3, #2048	; 0x800
 80014f4:	81fb      	strh	r3, [r7, #14]
  /* Enable or Disable the Output Compare Preload feature */
  tmpccmr2 |= (uint16_t)(TIM_OCPreload << 8);
 80014f6:	887b      	ldrh	r3, [r7, #2]
 80014f8:	021b      	lsls	r3, r3, #8
 80014fa:	b29a      	uxth	r2, r3
 80014fc:	89fb      	ldrh	r3, [r7, #14]
 80014fe:	4313      	orrs	r3, r2
 8001500:	81fb      	strh	r3, [r7, #14]
  /* Write to TIMx CCMR2 register */
  TIMx->CCMR2 = tmpccmr2;
 8001502:	687b      	ldr	r3, [r7, #4]
 8001504:	89fa      	ldrh	r2, [r7, #14]
 8001506:	839a      	strh	r2, [r3, #28]
}
 8001508:	bf00      	nop
 800150a:	3714      	adds	r7, #20
 800150c:	46bd      	mov	sp, r7
 800150e:	bc80      	pop	{r7}
 8001510:	4770      	bx	lr

08001512 <TIM_GetITStatus>:
  *   - TIM_IT_Break is used only with TIM1, TIM8 and TIM15. 
  *   - TIM_IT_COM is used only with TIM1, TIM8, TIM15, TIM16 and TIM17.  
  * @retval The new state of the TIM_IT(SET or RESET).
  */
ITStatus TIM_GetITStatus(TIM_TypeDef* TIMx, uint16_t TIM_IT)
{
 8001512:	b480      	push	{r7}
 8001514:	b085      	sub	sp, #20
 8001516:	af00      	add	r7, sp, #0
 8001518:	6078      	str	r0, [r7, #4]
 800151a:	460b      	mov	r3, r1
 800151c:	807b      	strh	r3, [r7, #2]
  ITStatus bitstatus = RESET;  
 800151e:	2300      	movs	r3, #0
 8001520:	73fb      	strb	r3, [r7, #15]
  uint16_t itstatus = 0x0, itenable = 0x0;
 8001522:	2300      	movs	r3, #0
 8001524:	81bb      	strh	r3, [r7, #12]
 8001526:	2300      	movs	r3, #0
 8001528:	817b      	strh	r3, [r7, #10]
  /* Check the parameters */
  assert_param(IS_TIM_ALL_PERIPH(TIMx));
  assert_param(IS_TIM_GET_IT(TIM_IT));
   
  itstatus = TIMx->SR & TIM_IT;
 800152a:	687b      	ldr	r3, [r7, #4]
 800152c:	8a1b      	ldrh	r3, [r3, #16]
 800152e:	b29a      	uxth	r2, r3
 8001530:	887b      	ldrh	r3, [r7, #2]
 8001532:	4013      	ands	r3, r2
 8001534:	81bb      	strh	r3, [r7, #12]
  
  itenable = TIMx->DIER & TIM_IT;
 8001536:	687b      	ldr	r3, [r7, #4]
 8001538:	899b      	ldrh	r3, [r3, #12]
 800153a:	b29a      	uxth	r2, r3
 800153c:	887b      	ldrh	r3, [r7, #2]
 800153e:	4013      	ands	r3, r2
 8001540:	817b      	strh	r3, [r7, #10]
  if ((itstatus != (uint16_t)RESET) && (itenable != (uint16_t)RESET))
 8001542:	89bb      	ldrh	r3, [r7, #12]
 8001544:	2b00      	cmp	r3, #0
 8001546:	d005      	beq.n	8001554 <TIM_GetITStatus+0x42>
 8001548:	897b      	ldrh	r3, [r7, #10]
 800154a:	2b00      	cmp	r3, #0
 800154c:	d002      	beq.n	8001554 <TIM_GetITStatus+0x42>
  {
    bitstatus = SET;
 800154e:	2301      	movs	r3, #1
 8001550:	73fb      	strb	r3, [r7, #15]
 8001552:	e001      	b.n	8001558 <TIM_GetITStatus+0x46>
  }
  else
  {
    bitstatus = RESET;
 8001554:	2300      	movs	r3, #0
 8001556:	73fb      	strb	r3, [r7, #15]
  }
  return bitstatus;
 8001558:	7bfb      	ldrb	r3, [r7, #15]
}
 800155a:	4618      	mov	r0, r3
 800155c:	3714      	adds	r7, #20
 800155e:	46bd      	mov	sp, r7
 8001560:	bc80      	pop	{r7}
 8001562:	4770      	bx	lr

08001564 <TIM_ClearITPendingBit>:
  *   - TIM_IT_Break is used only with TIM1, TIM8 and TIM15. 
  *   - TIM_IT_COM is used only with TIM1, TIM8, TIM15, TIM16 and TIM17.    
  * @retval None
  */
void TIM_ClearITPendingBit(TIM_TypeDef* TIMx, uint16_t TIM_IT)
{
 8001564:	b480      	push	{r7}
 8001566:	b083      	sub	sp, #12
 8001568:	af00      	add	r7, sp, #0
 800156a:	6078      	str	r0, [r7, #4]
 800156c:	460b      	mov	r3, r1
 800156e:	807b      	strh	r3, [r7, #2]
  /* Check the parameters */
  assert_param(IS_TIM_ALL_PERIPH(TIMx));
  assert_param(IS_TIM_IT(TIM_IT));
  /* Clear the IT pending Bit */
  TIMx->SR = (uint16_t)~TIM_IT;
 8001570:	887b      	ldrh	r3, [r7, #2]
 8001572:	43db      	mvns	r3, r3
 8001574:	b29a      	uxth	r2, r3
 8001576:	687b      	ldr	r3, [r7, #4]
 8001578:	821a      	strh	r2, [r3, #16]
}
 800157a:	bf00      	nop
 800157c:	370c      	adds	r7, #12
 800157e:	46bd      	mov	sp, r7
 8001580:	bc80      	pop	{r7}
 8001582:	4770      	bx	lr

08001584 <USART_Init>:
  *         that contains the configuration information for the specified USART 
  *         peripheral.
  * @retval None
  */
void USART_Init(USART_TypeDef* USARTx, USART_InitTypeDef* USART_InitStruct)
{
 8001584:	b580      	push	{r7, lr}
 8001586:	b08c      	sub	sp, #48	; 0x30
 8001588:	af00      	add	r7, sp, #0
 800158a:	6078      	str	r0, [r7, #4]
 800158c:	6039      	str	r1, [r7, #0]
  uint32_t tmpreg = 0x00, apbclock = 0x00;
 800158e:	2300      	movs	r3, #0
 8001590:	62fb      	str	r3, [r7, #44]	; 0x2c
 8001592:	2300      	movs	r3, #0
 8001594:	62bb      	str	r3, [r7, #40]	; 0x28
  uint32_t integerdivider = 0x00;
 8001596:	2300      	movs	r3, #0
 8001598:	627b      	str	r3, [r7, #36]	; 0x24
  uint32_t fractionaldivider = 0x00;
 800159a:	2300      	movs	r3, #0
 800159c:	623b      	str	r3, [r7, #32]
  uint32_t usartxbase = 0;
 800159e:	2300      	movs	r3, #0
 80015a0:	61fb      	str	r3, [r7, #28]
  if (USART_InitStruct->USART_HardwareFlowControl != USART_HardwareFlowControl_None)
  {
    assert_param(IS_USART_123_PERIPH(USARTx));
  }

  usartxbase = (uint32_t)USARTx;
 80015a2:	687b      	ldr	r3, [r7, #4]
 80015a4:	61fb      	str	r3, [r7, #28]

/*---------------------------- USART CR2 Configuration -----------------------*/
  tmpreg = USARTx->CR2;
 80015a6:	687b      	ldr	r3, [r7, #4]
 80015a8:	8a1b      	ldrh	r3, [r3, #16]
 80015aa:	b29b      	uxth	r3, r3
 80015ac:	62fb      	str	r3, [r7, #44]	; 0x2c
  /* Clear STOP[13:12] bits */
  tmpreg &= CR2_STOP_CLEAR_Mask;
 80015ae:	6afa      	ldr	r2, [r7, #44]	; 0x2c
 80015b0:	f64c 73ff 	movw	r3, #53247	; 0xcfff
 80015b4:	4013      	ands	r3, r2
 80015b6:	62fb      	str	r3, [r7, #44]	; 0x2c
  /* Configure the USART Stop Bits, Clock, CPOL, CPHA and LastBit ------------*/
  /* Set STOP[13:12] bits according to USART_StopBits value */
  tmpreg |= (uint32_t)USART_InitStruct->USART_StopBits;
 80015b8:	683b      	ldr	r3, [r7, #0]
 80015ba:	88db      	ldrh	r3, [r3, #6]
 80015bc:	461a      	mov	r2, r3
 80015be:	6afb      	ldr	r3, [r7, #44]	; 0x2c
 80015c0:	4313      	orrs	r3, r2
 80015c2:	62fb      	str	r3, [r7, #44]	; 0x2c
  
  /* Write to USART CR2 */
  USARTx->CR2 = (uint16_t)tmpreg;
 80015c4:	6afb      	ldr	r3, [r7, #44]	; 0x2c
 80015c6:	b29a      	uxth	r2, r3
 80015c8:	687b      	ldr	r3, [r7, #4]
 80015ca:	821a      	strh	r2, [r3, #16]

/*---------------------------- USART CR1 Configuration -----------------------*/
  tmpreg = USARTx->CR1;
 80015cc:	687b      	ldr	r3, [r7, #4]
 80015ce:	899b      	ldrh	r3, [r3, #12]
 80015d0:	b29b      	uxth	r3, r3
 80015d2:	62fb      	str	r3, [r7, #44]	; 0x2c
  /* Clear M, PCE, PS, TE and RE bits */
  tmpreg &= CR1_CLEAR_Mask;
 80015d4:	6afa      	ldr	r2, [r7, #44]	; 0x2c
 80015d6:	f64e 13f3 	movw	r3, #59891	; 0xe9f3
 80015da:	4013      	ands	r3, r2
 80015dc:	62fb      	str	r3, [r7, #44]	; 0x2c
  /* Configure the USART Word Length, Parity and mode ----------------------- */
  /* Set the M bits according to USART_WordLength value */
  /* Set PCE and PS bits according to USART_Parity value */
  /* Set TE and RE bits according to USART_Mode value */
  tmpreg |= (uint32_t)USART_InitStruct->USART_WordLength | USART_InitStruct->USART_Parity |
 80015de:	683b      	ldr	r3, [r7, #0]
 80015e0:	889a      	ldrh	r2, [r3, #4]
 80015e2:	683b      	ldr	r3, [r7, #0]
 80015e4:	891b      	ldrh	r3, [r3, #8]
 80015e6:	4313      	orrs	r3, r2
 80015e8:	b29a      	uxth	r2, r3
            USART_InitStruct->USART_Mode;
 80015ea:	683b      	ldr	r3, [r7, #0]
 80015ec:	895b      	ldrh	r3, [r3, #10]
  tmpreg |= (uint32_t)USART_InitStruct->USART_WordLength | USART_InitStruct->USART_Parity |
 80015ee:	4313      	orrs	r3, r2
 80015f0:	b29b      	uxth	r3, r3
 80015f2:	461a      	mov	r2, r3
 80015f4:	6afb      	ldr	r3, [r7, #44]	; 0x2c
 80015f6:	4313      	orrs	r3, r2
 80015f8:	62fb      	str	r3, [r7, #44]	; 0x2c
  /* Write to USART CR1 */
  USARTx->CR1 = (uint16_t)tmpreg;
 80015fa:	6afb      	ldr	r3, [r7, #44]	; 0x2c
 80015fc:	b29a      	uxth	r2, r3
 80015fe:	687b      	ldr	r3, [r7, #4]
 8001600:	819a      	strh	r2, [r3, #12]

/*---------------------------- USART CR3 Configuration -----------------------*/  
  tmpreg = USARTx->CR3;
 8001602:	687b      	ldr	r3, [r7, #4]
 8001604:	8a9b      	ldrh	r3, [r3, #20]
 8001606:	b29b      	uxth	r3, r3
 8001608:	62fb      	str	r3, [r7, #44]	; 0x2c
  /* Clear CTSE and RTSE bits */
  tmpreg &= CR3_CLEAR_Mask;
 800160a:	6afa      	ldr	r2, [r7, #44]	; 0x2c
 800160c:	f64f 43ff 	movw	r3, #64767	; 0xfcff
 8001610:	4013      	ands	r3, r2
 8001612:	62fb      	str	r3, [r7, #44]	; 0x2c
  /* Configure the USART HFC -------------------------------------------------*/
  /* Set CTSE and RTSE bits according to USART_HardwareFlowControl value */
  tmpreg |= USART_InitStruct->USART_HardwareFlowControl;
 8001614:	683b      	ldr	r3, [r7, #0]
 8001616:	899b      	ldrh	r3, [r3, #12]
 8001618:	461a      	mov	r2, r3
 800161a:	6afb      	ldr	r3, [r7, #44]	; 0x2c
 800161c:	4313      	orrs	r3, r2
 800161e:	62fb      	str	r3, [r7, #44]	; 0x2c
  /* Write to USART CR3 */
  USARTx->CR3 = (uint16_t)tmpreg;
 8001620:	6afb      	ldr	r3, [r7, #44]	; 0x2c
 8001622:	b29a      	uxth	r2, r3
 8001624:	687b      	ldr	r3, [r7, #4]
 8001626:	829a      	strh	r2, [r3, #20]

/*---------------------------- USART BRR Configuration -----------------------*/
  /* Configure the USART Baud Rate -------------------------------------------*/
  RCC_GetClocksFreq(&RCC_ClocksStatus);
 8001628:	f107 0308 	add.w	r3, r7, #8
 800162c:	4618      	mov	r0, r3
 800162e:	f7ff fb37 	bl	8000ca0 <RCC_GetClocksFreq>
  if (usartxbase == USART1_BASE)
 8001632:	69fb      	ldr	r3, [r7, #28]
 8001634:	4a2e      	ldr	r2, [pc, #184]	; (80016f0 <USART_Init+0x16c>)
 8001636:	4293      	cmp	r3, r2
 8001638:	d102      	bne.n	8001640 <USART_Init+0xbc>
  {
    apbclock = RCC_ClocksStatus.PCLK2_Frequency;
 800163a:	697b      	ldr	r3, [r7, #20]
 800163c:	62bb      	str	r3, [r7, #40]	; 0x28
 800163e:	e001      	b.n	8001644 <USART_Init+0xc0>
  }
  else
  {
    apbclock = RCC_ClocksStatus.PCLK1_Frequency;
 8001640:	693b      	ldr	r3, [r7, #16]
 8001642:	62bb      	str	r3, [r7, #40]	; 0x28
  }
  
  /* Determine the integer part */
  if ((USARTx->CR1 & CR1_OVER8_Set) != 0)
 8001644:	687b      	ldr	r3, [r7, #4]
 8001646:	899b      	ldrh	r3, [r3, #12]
 8001648:	b29b      	uxth	r3, r3
 800164a:	b21b      	sxth	r3, r3
 800164c:	2b00      	cmp	r3, #0
 800164e:	da0c      	bge.n	800166a <USART_Init+0xe6>
  {
    /* Integer part computing in case Oversampling mode is 8 Samples */
    integerdivider = ((25 * apbclock) / (2 * (USART_InitStruct->USART_BaudRate)));    
 8001650:	6aba      	ldr	r2, [r7, #40]	; 0x28
 8001652:	4613      	mov	r3, r2
 8001654:	009b      	lsls	r3, r3, #2
 8001656:	4413      	add	r3, r2
 8001658:	009a      	lsls	r2, r3, #2
 800165a:	441a      	add	r2, r3
 800165c:	683b      	ldr	r3, [r7, #0]
 800165e:	681b      	ldr	r3, [r3, #0]
 8001660:	005b      	lsls	r3, r3, #1
 8001662:	fbb2 f3f3 	udiv	r3, r2, r3
 8001666:	627b      	str	r3, [r7, #36]	; 0x24
 8001668:	e00b      	b.n	8001682 <USART_Init+0xfe>
  }
  else /* if ((USARTx->CR1 & CR1_OVER8_Set) == 0) */
  {
    /* Integer part computing in case Oversampling mode is 16 Samples */
    integerdivider = ((25 * apbclock) / (4 * (USART_InitStruct->USART_BaudRate)));    
 800166a:	6aba      	ldr	r2, [r7, #40]	; 0x28
 800166c:	4613      	mov	r3, r2
 800166e:	009b      	lsls	r3, r3, #2
 8001670:	4413      	add	r3, r2
 8001672:	009a      	lsls	r2, r3, #2
 8001674:	441a      	add	r2, r3
 8001676:	683b      	ldr	r3, [r7, #0]
 8001678:	681b      	ldr	r3, [r3, #0]
 800167a:	009b      	lsls	r3, r3, #2
 800167c:	fbb2 f3f3 	udiv	r3, r2, r3
 8001680:	627b      	str	r3, [r7, #36]	; 0x24
  }
  tmpreg = (integerdivider / 100) << 4;
 8001682:	6a7b      	ldr	r3, [r7, #36]	; 0x24
 8001684:	4a1b      	ldr	r2, [pc, #108]	; (80016f4 <USART_Init+0x170>)
 8001686:	fba2 2303 	umull	r2, r3, r2, r3
 800168a:	095b      	lsrs	r3, r3, #5
 800168c:	011b      	lsls	r3, r3, #4
 800168e:	62fb      	str	r3, [r7, #44]	; 0x2c

  /* Determine the fractional part */
  fractionaldivider = integerdivider - (100 * (tmpreg >> 4));
 8001690:	6afb      	ldr	r3, [r7, #44]	; 0x2c
 8001692:	091b      	lsrs	r3, r3, #4
 8001694:	2264      	movs	r2, #100	; 0x64
 8001696:	fb02 f303 	mul.w	r3, r2, r3
 800169a:	6a7a      	ldr	r2, [r7, #36]	; 0x24
 800169c:	1ad3      	subs	r3, r2, r3
 800169e:	623b      	str	r3, [r7, #32]

  /* Implement the fractional part in the register */
  if ((USARTx->CR1 & CR1_OVER8_Set) != 0)
 80016a0:	687b      	ldr	r3, [r7, #4]
 80016a2:	899b      	ldrh	r3, [r3, #12]
 80016a4:	b29b      	uxth	r3, r3
 80016a6:	b21b      	sxth	r3, r3
 80016a8:	2b00      	cmp	r3, #0
 80016aa:	da0c      	bge.n	80016c6 <USART_Init+0x142>
  {
    tmpreg |= ((((fractionaldivider * 8) + 50) / 100)) & ((uint8_t)0x07);
 80016ac:	6a3b      	ldr	r3, [r7, #32]
 80016ae:	00db      	lsls	r3, r3, #3
 80016b0:	3332      	adds	r3, #50	; 0x32
 80016b2:	4a10      	ldr	r2, [pc, #64]	; (80016f4 <USART_Init+0x170>)
 80016b4:	fba2 2303 	umull	r2, r3, r2, r3
 80016b8:	095b      	lsrs	r3, r3, #5
 80016ba:	f003 0307 	and.w	r3, r3, #7
 80016be:	6afa      	ldr	r2, [r7, #44]	; 0x2c
 80016c0:	4313      	orrs	r3, r2
 80016c2:	62fb      	str	r3, [r7, #44]	; 0x2c
 80016c4:	e00b      	b.n	80016de <USART_Init+0x15a>
  }
  else /* if ((USARTx->CR1 & CR1_OVER8_Set) == 0) */
  {
    tmpreg |= ((((fractionaldivider * 16) + 50) / 100)) & ((uint8_t)0x0F);
 80016c6:	6a3b      	ldr	r3, [r7, #32]
 80016c8:	011b      	lsls	r3, r3, #4
 80016ca:	3332      	adds	r3, #50	; 0x32
 80016cc:	4a09      	ldr	r2, [pc, #36]	; (80016f4 <USART_Init+0x170>)
 80016ce:	fba2 2303 	umull	r2, r3, r2, r3
 80016d2:	095b      	lsrs	r3, r3, #5
 80016d4:	f003 030f 	and.w	r3, r3, #15
 80016d8:	6afa      	ldr	r2, [r7, #44]	; 0x2c
 80016da:	4313      	orrs	r3, r2
 80016dc:	62fb      	str	r3, [r7, #44]	; 0x2c
  }
  
  /* Write to USART BRR */
  USARTx->BRR = (uint16_t)tmpreg;
 80016de:	6afb      	ldr	r3, [r7, #44]	; 0x2c
 80016e0:	b29a      	uxth	r2, r3
 80016e2:	687b      	ldr	r3, [r7, #4]
 80016e4:	811a      	strh	r2, [r3, #8]
}
 80016e6:	bf00      	nop
 80016e8:	3730      	adds	r7, #48	; 0x30
 80016ea:	46bd      	mov	sp, r7
 80016ec:	bd80      	pop	{r7, pc}
 80016ee:	bf00      	nop
 80016f0:	40013800 	.word	0x40013800
 80016f4:	51eb851f 	.word	0x51eb851f

080016f8 <USART_Cmd>:
  * @param  NewState: new state of the USARTx peripheral.
  *         This parameter can be: ENABLE or DISABLE.
  * @retval None
  */
void USART_Cmd(USART_TypeDef* USARTx, FunctionalState NewState)
{
 80016f8:	b480      	push	{r7}
 80016fa:	b083      	sub	sp, #12
 80016fc:	af00      	add	r7, sp, #0
 80016fe:	6078      	str	r0, [r7, #4]
 8001700:	460b      	mov	r3, r1
 8001702:	70fb      	strb	r3, [r7, #3]
  /* Check the parameters */
  assert_param(IS_USART_ALL_PERIPH(USARTx));
  assert_param(IS_FUNCTIONAL_STATE(NewState));
  
  if (NewState != DISABLE)
 8001704:	78fb      	ldrb	r3, [r7, #3]
 8001706:	2b00      	cmp	r3, #0
 8001708:	d008      	beq.n	800171c <USART_Cmd+0x24>
  {
    /* Enable the selected USART by setting the UE bit in the CR1 register */
    USARTx->CR1 |= CR1_UE_Set;
 800170a:	687b      	ldr	r3, [r7, #4]
 800170c:	899b      	ldrh	r3, [r3, #12]
 800170e:	b29b      	uxth	r3, r3
 8001710:	f443 5300 	orr.w	r3, r3, #8192	; 0x2000
 8001714:	b29a      	uxth	r2, r3
 8001716:	687b      	ldr	r3, [r7, #4]
 8001718:	819a      	strh	r2, [r3, #12]
  else
  {
    /* Disable the selected USART by clearing the UE bit in the CR1 register */
    USARTx->CR1 &= CR1_UE_Reset;
  }
}
 800171a:	e007      	b.n	800172c <USART_Cmd+0x34>
    USARTx->CR1 &= CR1_UE_Reset;
 800171c:	687b      	ldr	r3, [r7, #4]
 800171e:	899b      	ldrh	r3, [r3, #12]
 8001720:	b29b      	uxth	r3, r3
 8001722:	f423 5300 	bic.w	r3, r3, #8192	; 0x2000
 8001726:	b29a      	uxth	r2, r3
 8001728:	687b      	ldr	r3, [r7, #4]
 800172a:	819a      	strh	r2, [r3, #12]
}
 800172c:	bf00      	nop
 800172e:	370c      	adds	r7, #12
 8001730:	46bd      	mov	sp, r7
 8001732:	bc80      	pop	{r7}
 8001734:	4770      	bx	lr

08001736 <USART_SendData>:
  *   USART1, USART2, USART3, UART4 or UART5.
  * @param  Data: the data to transmit.
  * @retval None
  */
void USART_SendData(USART_TypeDef* USARTx, uint16_t Data)
{
 8001736:	b480      	push	{r7}
 8001738:	b083      	sub	sp, #12
 800173a:	af00      	add	r7, sp, #0
 800173c:	6078      	str	r0, [r7, #4]
 800173e:	460b      	mov	r3, r1
 8001740:	807b      	strh	r3, [r7, #2]
  /* Check the parameters */
  assert_param(IS_USART_ALL_PERIPH(USARTx));
  assert_param(IS_USART_DATA(Data)); 
    
  /* Transmit Data */
  USARTx->DR = (Data & (uint16_t)0x01FF);
 8001742:	887b      	ldrh	r3, [r7, #2]
 8001744:	f3c3 0308 	ubfx	r3, r3, #0, #9
 8001748:	b29a      	uxth	r2, r3
 800174a:	687b      	ldr	r3, [r7, #4]
 800174c:	809a      	strh	r2, [r3, #4]
}
 800174e:	bf00      	nop
 8001750:	370c      	adds	r7, #12
 8001752:	46bd      	mov	sp, r7
 8001754:	bc80      	pop	{r7}
 8001756:	4770      	bx	lr

08001758 <USART_GetFlagStatus>:
  *     @arg USART_FLAG_FE:   Framing Error flag
  *     @arg USART_FLAG_PE:   Parity Error flag
  * @retval The new state of USART_FLAG (SET or RESET).
  */
FlagStatus USART_GetFlagStatus(USART_TypeDef* USARTx, uint16_t USART_FLAG)
{
 8001758:	b480      	push	{r7}
 800175a:	b085      	sub	sp, #20
 800175c:	af00      	add	r7, sp, #0
 800175e:	6078      	str	r0, [r7, #4]
 8001760:	460b      	mov	r3, r1
 8001762:	807b      	strh	r3, [r7, #2]
  FlagStatus bitstatus = RESET;
 8001764:	2300      	movs	r3, #0
 8001766:	73fb      	strb	r3, [r7, #15]
  if (USART_FLAG == USART_FLAG_CTS)
  {
    assert_param(IS_USART_123_PERIPH(USARTx));
  }  
  
  if ((USARTx->SR & USART_FLAG) != (uint16_t)RESET)
 8001768:	687b      	ldr	r3, [r7, #4]
 800176a:	881b      	ldrh	r3, [r3, #0]
 800176c:	b29a      	uxth	r2, r3
 800176e:	887b      	ldrh	r3, [r7, #2]
 8001770:	4013      	ands	r3, r2
 8001772:	b29b      	uxth	r3, r3
 8001774:	2b00      	cmp	r3, #0
 8001776:	d002      	beq.n	800177e <USART_GetFlagStatus+0x26>
  {
    bitstatus = SET;
 8001778:	2301      	movs	r3, #1
 800177a:	73fb      	strb	r3, [r7, #15]
 800177c:	e001      	b.n	8001782 <USART_GetFlagStatus+0x2a>
  }
  else
  {
    bitstatus = RESET;
 800177e:	2300      	movs	r3, #0
 8001780:	73fb      	strb	r3, [r7, #15]
  }
  return bitstatus;
 8001782:	7bfb      	ldrb	r3, [r7, #15]
}
 8001784:	4618      	mov	r0, r3
 8001786:	3714      	adds	r7, #20
 8001788:	46bd      	mov	sp, r7
 800178a:	bc80      	pop	{r7}
 800178c:	4770      	bx	lr
	...

08001790 <gyro_init>:
 * 0x08: 500 degrees/second, error: NA
 * 0x10: 1000 degrees/second, error: 26
 * 0x18: 2000 degrees/second, error: 13
 */
int8_t gyro_init(uint8_t sensitivity)
{
 8001790:	b580      	push	{r7, lr}
 8001792:	b084      	sub	sp, #16
 8001794:	af00      	add	r7, sp, #0
 8001796:	4603      	mov	r3, r0
 8001798:	71fb      	strb	r3, [r7, #7]
	int8_t returnCode=0;
 800179a:	2300      	movs	r3, #0
 800179c:	73fb      	strb	r3, [r7, #15]

	/* turn off sleep mode */
	returnCode = i2c_slave_mem_write(MPU6050_ID, 0x6B, 0);
 800179e:	2200      	movs	r2, #0
 80017a0:	216b      	movs	r1, #107	; 0x6b
 80017a2:	2068      	movs	r0, #104	; 0x68
 80017a4:	f000 f95c 	bl	8001a60 <i2c_slave_mem_write>
 80017a8:	4603      	mov	r3, r0
 80017aa:	73fb      	strb	r3, [r7, #15]
	if(returnCode == -1)
 80017ac:	f997 300f 	ldrsb.w	r3, [r7, #15]
 80017b0:	f1b3 3fff 	cmp.w	r3, #4294967295
 80017b4:	d102      	bne.n	80017bc <gyro_init+0x2c>
		return -1;
 80017b6:	f04f 33ff 	mov.w	r3, #4294967295
 80017ba:	e013      	b.n	80017e4 <gyro_init+0x54>

	returnCode = i2c_slave_mem_write(MPU6050_ID, 0x1B, sensitivity);
 80017bc:	79fb      	ldrb	r3, [r7, #7]
 80017be:	461a      	mov	r2, r3
 80017c0:	211b      	movs	r1, #27
 80017c2:	2068      	movs	r0, #104	; 0x68
 80017c4:	f000 f94c 	bl	8001a60 <i2c_slave_mem_write>
 80017c8:	4603      	mov	r3, r0
 80017ca:	73fb      	strb	r3, [r7, #15]
	if(returnCode == -1)
 80017cc:	f997 300f 	ldrsb.w	r3, [r7, #15]
 80017d0:	f1b3 3fff 	cmp.w	r3, #4294967295
 80017d4:	d102      	bne.n	80017dc <gyro_init+0x4c>
		return -1;
 80017d6:	f04f 33ff 	mov.w	r3, #4294967295
 80017da:	e003      	b.n	80017e4 <gyro_init+0x54>
	uart_printf("2\n");
 80017dc:	4803      	ldr	r0, [pc, #12]	; (80017ec <gyro_init+0x5c>)
 80017de:	f000 fb35 	bl	8001e4c <uart_printf>

	return 0;
 80017e2:	2300      	movs	r3, #0
}
 80017e4:	4618      	mov	r0, r3
 80017e6:	3710      	adds	r7, #16
 80017e8:	46bd      	mov	sp, r7
 80017ea:	bd80      	pop	{r7, pc}
 80017ec:	0800242c 	.word	0x0800242c

080017f0 <gyro_measurement_read>:

int8_t gyro_measurement_read(int16_t* gyroBuffer)
{
 80017f0:	b580      	push	{r7, lr}
 80017f2:	b084      	sub	sp, #16
 80017f4:	af00      	add	r7, sp, #0
 80017f6:	6078      	str	r0, [r7, #4]
	uint8_t gyroReadValues[6];
	int8_t errorValue;

	errorValue = i2c_slave_mem_read(MPU6050_ID, 0x43, gyroReadValues, 6);
 80017f8:	f107 0208 	add.w	r2, r7, #8
 80017fc:	2306      	movs	r3, #6
 80017fe:	2143      	movs	r1, #67	; 0x43
 8001800:	2068      	movs	r0, #104	; 0x68
 8001802:	f000 f869 	bl	80018d8 <i2c_slave_mem_read>
 8001806:	4603      	mov	r3, r0
 8001808:	73fb      	strb	r3, [r7, #15]

	if(errorValue == 0)
 800180a:	f997 300f 	ldrsb.w	r3, [r7, #15]
 800180e:	2b00      	cmp	r3, #0
 8001810:	d11e      	bne.n	8001850 <gyro_measurement_read+0x60>
	{
		gyroBuffer[0] = (gyroReadValues[0]<<8)|gyroReadValues[1];//x_out
 8001812:	7a3b      	ldrb	r3, [r7, #8]
 8001814:	021b      	lsls	r3, r3, #8
 8001816:	b21a      	sxth	r2, r3
 8001818:	7a7b      	ldrb	r3, [r7, #9]
 800181a:	b21b      	sxth	r3, r3
 800181c:	4313      	orrs	r3, r2
 800181e:	b21a      	sxth	r2, r3
 8001820:	687b      	ldr	r3, [r7, #4]
 8001822:	801a      	strh	r2, [r3, #0]
		gyroBuffer[1] = (gyroReadValues[2]<<8)|gyroReadValues[3];//y_out
 8001824:	687b      	ldr	r3, [r7, #4]
 8001826:	3302      	adds	r3, #2
 8001828:	7aba      	ldrb	r2, [r7, #10]
 800182a:	0212      	lsls	r2, r2, #8
 800182c:	b211      	sxth	r1, r2
 800182e:	7afa      	ldrb	r2, [r7, #11]
 8001830:	b212      	sxth	r2, r2
 8001832:	430a      	orrs	r2, r1
 8001834:	b212      	sxth	r2, r2
 8001836:	801a      	strh	r2, [r3, #0]
		gyroBuffer[2] = (gyroReadValues[4]<<8)|gyroReadValues[5];//z_out
 8001838:	687b      	ldr	r3, [r7, #4]
 800183a:	3304      	adds	r3, #4
 800183c:	7b3a      	ldrb	r2, [r7, #12]
 800183e:	0212      	lsls	r2, r2, #8
 8001840:	b211      	sxth	r1, r2
 8001842:	7b7a      	ldrb	r2, [r7, #13]
 8001844:	b212      	sxth	r2, r2
 8001846:	430a      	orrs	r2, r1
 8001848:	b212      	sxth	r2, r2
 800184a:	801a      	strh	r2, [r3, #0]
		return 0;
 800184c:	2300      	movs	r3, #0
 800184e:	e001      	b.n	8001854 <gyro_measurement_read+0x64>
	}
	else
		return -1;
 8001850:	f04f 33ff 	mov.w	r3, #4294967295
}
 8001854:	4618      	mov	r0, r3
 8001856:	3710      	adds	r7, #16
 8001858:	46bd      	mov	sp, r7
 800185a:	bd80      	pop	{r7, pc}

0800185c <I2C_LowLevel_Init>:
#include "timer_config.h"
#include "i2c_comm.h"
#include "small_printf.h"

void I2C_LowLevel_Init(uint32_t ClockSpeed, uint8_t OwnAddress)
{
 800185c:	b580      	push	{r7, lr}
 800185e:	b088      	sub	sp, #32
 8001860:	af00      	add	r7, sp, #0
 8001862:	6078      	str	r0, [r7, #4]
 8001864:	460b      	mov	r3, r1
 8001866:	70fb      	strb	r3, [r7, #3]
	I2C_InitTypeDef  I2C_InitStructure;
	GPIO_InitTypeDef  GPIO_InitStructure;

	RCC_APB2PeriphClockCmd(RCC_APB2Periph_GPIOB, ENABLE);
 8001868:	2101      	movs	r1, #1
 800186a:	2008      	movs	r0, #8
 800186c:	f7ff fac6 	bl	8000dfc <RCC_APB2PeriphClockCmd>
	RCC_APB1PeriphClockCmd(RCC_APB1Periph_I2C1, ENABLE);
 8001870:	2101      	movs	r1, #1
 8001872:	f44f 1000 	mov.w	r0, #2097152	; 0x200000
 8001876:	f7ff fadf 	bl	8000e38 <RCC_APB1PeriphClockCmd>


	/* Configure I2C_EE pins: SCL and SDA */
	GPIO_InitStructure.GPIO_Pin =  GPIO_Pin_6 | GPIO_Pin_7;
 800187a:	23c0      	movs	r3, #192	; 0xc0
 800187c:	81bb      	strh	r3, [r7, #12]
	GPIO_InitStructure.GPIO_Speed = GPIO_Speed_50MHz;
 800187e:	2303      	movs	r3, #3
 8001880:	73bb      	strb	r3, [r7, #14]
	GPIO_InitStructure.GPIO_Mode = GPIO_Mode_AF_OD;
 8001882:	231c      	movs	r3, #28
 8001884:	73fb      	strb	r3, [r7, #15]
	GPIO_Init(GPIOB, &GPIO_InitStructure);
 8001886:	f107 030c 	add.w	r3, r7, #12
 800188a:	4619      	mov	r1, r3
 800188c:	4810      	ldr	r0, [pc, #64]	; (80018d0 <I2C_LowLevel_Init+0x74>)
 800188e:	f7fe ffa5 	bl	80007dc <GPIO_Init>

	/* I2C configuration */
	I2C_InitStructure.I2C_Mode = I2C_Mode_I2C;
 8001892:	2300      	movs	r3, #0
 8001894:	82bb      	strh	r3, [r7, #20]
	I2C_InitStructure.I2C_DutyCycle = I2C_DutyCycle_2;
 8001896:	f64b 73ff 	movw	r3, #49151	; 0xbfff
 800189a:	82fb      	strh	r3, [r7, #22]
	I2C_InitStructure.I2C_OwnAddress1 = OwnAddress;
 800189c:	78fb      	ldrb	r3, [r7, #3]
 800189e:	b29b      	uxth	r3, r3
 80018a0:	833b      	strh	r3, [r7, #24]
	I2C_InitStructure.I2C_Ack = I2C_Ack_Enable;
 80018a2:	f44f 6380 	mov.w	r3, #1024	; 0x400
 80018a6:	837b      	strh	r3, [r7, #26]
	I2C_InitStructure.I2C_AcknowledgedAddress = I2C_AcknowledgedAddress_7bit;
 80018a8:	f44f 4380 	mov.w	r3, #16384	; 0x4000
 80018ac:	83bb      	strh	r3, [r7, #28]
	I2C_InitStructure.I2C_ClockSpeed = ClockSpeed;
 80018ae:	687b      	ldr	r3, [r7, #4]
 80018b0:	613b      	str	r3, [r7, #16]

	/* I2C Peripheral Enable */
	I2C_Cmd(I2C1, ENABLE);
 80018b2:	2101      	movs	r1, #1
 80018b4:	4807      	ldr	r0, [pc, #28]	; (80018d4 <I2C_LowLevel_Init+0x78>)
 80018b6:	f7ff f90f 	bl	8000ad8 <I2C_Cmd>
	/* Apply I2C configuration after enabling it */
	I2C_Init(I2C1, &I2C_InitStructure);
 80018ba:	f107 0310 	add.w	r3, r7, #16
 80018be:	4619      	mov	r1, r3
 80018c0:	4804      	ldr	r0, [pc, #16]	; (80018d4 <I2C_LowLevel_Init+0x78>)
 80018c2:	f7ff f847 	bl	8000954 <I2C_Init>
}
 80018c6:	bf00      	nop
 80018c8:	3720      	adds	r7, #32
 80018ca:	46bd      	mov	sp, r7
 80018cc:	bd80      	pop	{r7, pc}
 80018ce:	bf00      	nop
 80018d0:	40010c00 	.word	0x40010c00
 80018d4:	40005400 	.word	0x40005400

080018d8 <i2c_slave_mem_read>:

	return data;
}

int8_t i2c_slave_mem_read(uint8_t slaveAddr, uint8_t registerAddr, uint8_t* writeBuffer, uint8_t bytesNum)
{
 80018d8:	b590      	push	{r4, r7, lr}
 80018da:	b085      	sub	sp, #20
 80018dc:	af00      	add	r7, sp, #0
 80018de:	603a      	str	r2, [r7, #0]
 80018e0:	461a      	mov	r2, r3
 80018e2:	4603      	mov	r3, r0
 80018e4:	71fb      	strb	r3, [r7, #7]
 80018e6:	460b      	mov	r3, r1
 80018e8:	71bb      	strb	r3, [r7, #6]
 80018ea:	4613      	mov	r3, r2
 80018ec:	717b      	strb	r3, [r7, #5]
	uint8_t i;

	i = bytesNum;
 80018ee:	797b      	ldrb	r3, [r7, #5]
 80018f0:	73fb      	strb	r3, [r7, #15]
	timeout_alarm_set(5*bytesNum);
 80018f2:	797a      	ldrb	r2, [r7, #5]
 80018f4:	4613      	mov	r3, r2
 80018f6:	009b      	lsls	r3, r3, #2
 80018f8:	4413      	add	r3, r2
 80018fa:	4618      	mov	r0, r3
 80018fc:	f000 fd2c 	bl	8002358 <timeout_alarm_set>

	I2C_AcknowledgeConfig(I2C1,ENABLE);
 8001900:	2101      	movs	r1, #1
 8001902:	4851      	ldr	r0, [pc, #324]	; (8001a48 <i2c_slave_mem_read+0x170>)
 8001904:	f7ff f945 	bl	8000b92 <I2C_AcknowledgeConfig>

	I2C_GenerateSTART(I2C1,ENABLE);
 8001908:	2101      	movs	r1, #1
 800190a:	484f      	ldr	r0, [pc, #316]	; (8001a48 <i2c_slave_mem_read+0x170>)
 800190c:	f7ff f903 	bl	8000b16 <I2C_GenerateSTART>
	while (!I2C_CheckEvent(I2C1, I2C_EVENT_MASTER_MODE_SELECT))
 8001910:	e007      	b.n	8001922 <i2c_slave_mem_read+0x4a>
	{
		if(timeout_alarm_status_check() == 1)
 8001912:	f000 fd3f 	bl	8002394 <timeout_alarm_status_check>
 8001916:	4603      	mov	r3, r0
 8001918:	2b01      	cmp	r3, #1
 800191a:	d102      	bne.n	8001922 <i2c_slave_mem_read+0x4a>
			return -1;
 800191c:	f04f 33ff 	mov.w	r3, #4294967295
 8001920:	e08e      	b.n	8001a40 <i2c_slave_mem_read+0x168>
	while (!I2C_CheckEvent(I2C1, I2C_EVENT_MASTER_MODE_SELECT))
 8001922:	494a      	ldr	r1, [pc, #296]	; (8001a4c <i2c_slave_mem_read+0x174>)
 8001924:	4848      	ldr	r0, [pc, #288]	; (8001a48 <i2c_slave_mem_read+0x170>)
 8001926:	f7ff f98c 	bl	8000c42 <I2C_CheckEvent>
 800192a:	4603      	mov	r3, r0
 800192c:	2b00      	cmp	r3, #0
 800192e:	d0f0      	beq.n	8001912 <i2c_slave_mem_read+0x3a>
	}
	//uart_printf("aa\n");

	I2C_Send7bitAddress(I2C1, (slaveAddr<<1), I2C_Direction_Transmitter);
 8001930:	79fb      	ldrb	r3, [r7, #7]
 8001932:	005b      	lsls	r3, r3, #1
 8001934:	b2db      	uxtb	r3, r3
 8001936:	2200      	movs	r2, #0
 8001938:	4619      	mov	r1, r3
 800193a:	4843      	ldr	r0, [pc, #268]	; (8001a48 <i2c_slave_mem_read+0x170>)
 800193c:	f7ff f964 	bl	8000c08 <I2C_Send7bitAddress>
	while (!I2C_CheckEvent(I2C1, I2C_EVENT_MASTER_TRANSMITTER_MODE_SELECTED))
 8001940:	e007      	b.n	8001952 <i2c_slave_mem_read+0x7a>
	{
		if(timeout_alarm_status_check() == 1)
 8001942:	f000 fd27 	bl	8002394 <timeout_alarm_status_check>
 8001946:	4603      	mov	r3, r0
 8001948:	2b01      	cmp	r3, #1
 800194a:	d102      	bne.n	8001952 <i2c_slave_mem_read+0x7a>
			return -1;
 800194c:	f04f 33ff 	mov.w	r3, #4294967295
 8001950:	e076      	b.n	8001a40 <i2c_slave_mem_read+0x168>
	while (!I2C_CheckEvent(I2C1, I2C_EVENT_MASTER_TRANSMITTER_MODE_SELECTED))
 8001952:	493f      	ldr	r1, [pc, #252]	; (8001a50 <i2c_slave_mem_read+0x178>)
 8001954:	483c      	ldr	r0, [pc, #240]	; (8001a48 <i2c_slave_mem_read+0x170>)
 8001956:	f7ff f974 	bl	8000c42 <I2C_CheckEvent>
 800195a:	4603      	mov	r3, r0
 800195c:	2b00      	cmp	r3, #0
 800195e:	d0f0      	beq.n	8001942 <i2c_slave_mem_read+0x6a>
	}
	//uart_printf("bb\n");


	I2C_SendData(I2C1, registerAddr);
 8001960:	79bb      	ldrb	r3, [r7, #6]
 8001962:	4619      	mov	r1, r3
 8001964:	4838      	ldr	r0, [pc, #224]	; (8001a48 <i2c_slave_mem_read+0x170>)
 8001966:	f7ff f933 	bl	8000bd0 <I2C_SendData>
	while (!I2C_CheckEvent(I2C1, I2C_EVENT_MASTER_BYTE_TRANSMITTED))
 800196a:	e007      	b.n	800197c <i2c_slave_mem_read+0xa4>
	{
		if(timeout_alarm_status_check() == 1)
 800196c:	f000 fd12 	bl	8002394 <timeout_alarm_status_check>
 8001970:	4603      	mov	r3, r0
 8001972:	2b01      	cmp	r3, #1
 8001974:	d102      	bne.n	800197c <i2c_slave_mem_read+0xa4>
			return -1;
 8001976:	f04f 33ff 	mov.w	r3, #4294967295
 800197a:	e061      	b.n	8001a40 <i2c_slave_mem_read+0x168>
	while (!I2C_CheckEvent(I2C1, I2C_EVENT_MASTER_BYTE_TRANSMITTED))
 800197c:	4935      	ldr	r1, [pc, #212]	; (8001a54 <i2c_slave_mem_read+0x17c>)
 800197e:	4832      	ldr	r0, [pc, #200]	; (8001a48 <i2c_slave_mem_read+0x170>)
 8001980:	f7ff f95f 	bl	8000c42 <I2C_CheckEvent>
 8001984:	4603      	mov	r3, r0
 8001986:	2b00      	cmp	r3, #0
 8001988:	d0f0      	beq.n	800196c <i2c_slave_mem_read+0x94>
	}
	//uart_printf("cc\n");

	I2C_GenerateSTART(I2C1,ENABLE);
 800198a:	2101      	movs	r1, #1
 800198c:	482e      	ldr	r0, [pc, #184]	; (8001a48 <i2c_slave_mem_read+0x170>)
 800198e:	f7ff f8c2 	bl	8000b16 <I2C_GenerateSTART>
	while (!I2C_CheckEvent(I2C1, I2C_EVENT_MASTER_MODE_SELECT))
 8001992:	e007      	b.n	80019a4 <i2c_slave_mem_read+0xcc>
	{
		if(timeout_alarm_status_check() == 1)
 8001994:	f000 fcfe 	bl	8002394 <timeout_alarm_status_check>
 8001998:	4603      	mov	r3, r0
 800199a:	2b01      	cmp	r3, #1
 800199c:	d102      	bne.n	80019a4 <i2c_slave_mem_read+0xcc>
			return -1;
 800199e:	f04f 33ff 	mov.w	r3, #4294967295
 80019a2:	e04d      	b.n	8001a40 <i2c_slave_mem_read+0x168>
	while (!I2C_CheckEvent(I2C1, I2C_EVENT_MASTER_MODE_SELECT))
 80019a4:	4929      	ldr	r1, [pc, #164]	; (8001a4c <i2c_slave_mem_read+0x174>)
 80019a6:	4828      	ldr	r0, [pc, #160]	; (8001a48 <i2c_slave_mem_read+0x170>)
 80019a8:	f7ff f94b 	bl	8000c42 <I2C_CheckEvent>
 80019ac:	4603      	mov	r3, r0
 80019ae:	2b00      	cmp	r3, #0
 80019b0:	d0f0      	beq.n	8001994 <i2c_slave_mem_read+0xbc>
	}
	//uart_printf("dd\n");

	I2C_Send7bitAddress(I2C1, slaveAddr<<1, I2C_Direction_Receiver);
 80019b2:	79fb      	ldrb	r3, [r7, #7]
 80019b4:	005b      	lsls	r3, r3, #1
 80019b6:	b2db      	uxtb	r3, r3
 80019b8:	2201      	movs	r2, #1
 80019ba:	4619      	mov	r1, r3
 80019bc:	4822      	ldr	r0, [pc, #136]	; (8001a48 <i2c_slave_mem_read+0x170>)
 80019be:	f7ff f923 	bl	8000c08 <I2C_Send7bitAddress>
	while (!I2C_CheckEvent(I2C1, I2C_EVENT_MASTER_RECEIVER_MODE_SELECTED))
 80019c2:	e007      	b.n	80019d4 <i2c_slave_mem_read+0xfc>
	{
		if(timeout_alarm_status_check() == 1)
 80019c4:	f000 fce6 	bl	8002394 <timeout_alarm_status_check>
 80019c8:	4603      	mov	r3, r0
 80019ca:	2b01      	cmp	r3, #1
 80019cc:	d102      	bne.n	80019d4 <i2c_slave_mem_read+0xfc>
			return -1;
 80019ce:	f04f 33ff 	mov.w	r3, #4294967295
 80019d2:	e035      	b.n	8001a40 <i2c_slave_mem_read+0x168>
	while (!I2C_CheckEvent(I2C1, I2C_EVENT_MASTER_RECEIVER_MODE_SELECTED))
 80019d4:	4920      	ldr	r1, [pc, #128]	; (8001a58 <i2c_slave_mem_read+0x180>)
 80019d6:	481c      	ldr	r0, [pc, #112]	; (8001a48 <i2c_slave_mem_read+0x170>)
 80019d8:	f7ff f933 	bl	8000c42 <I2C_CheckEvent>
 80019dc:	4603      	mov	r3, r0
 80019de:	2b00      	cmp	r3, #0
 80019e0:	d0f0      	beq.n	80019c4 <i2c_slave_mem_read+0xec>
	}
	//uart_printf("ee\n");

	while(i>0)
 80019e2:	e023      	b.n	8001a2c <i2c_slave_mem_read+0x154>
	{
		while (!I2C_CheckEvent(I2C1, I2C_EVENT_MASTER_BYTE_RECEIVED))
		{
			if(timeout_alarm_status_check() == 1)
 80019e4:	f000 fcd6 	bl	8002394 <timeout_alarm_status_check>
 80019e8:	4603      	mov	r3, r0
 80019ea:	2b01      	cmp	r3, #1
 80019ec:	d102      	bne.n	80019f4 <i2c_slave_mem_read+0x11c>
				return -1;
 80019ee:	f04f 33ff 	mov.w	r3, #4294967295
 80019f2:	e025      	b.n	8001a40 <i2c_slave_mem_read+0x168>
		while (!I2C_CheckEvent(I2C1, I2C_EVENT_MASTER_BYTE_RECEIVED))
 80019f4:	4919      	ldr	r1, [pc, #100]	; (8001a5c <i2c_slave_mem_read+0x184>)
 80019f6:	4814      	ldr	r0, [pc, #80]	; (8001a48 <i2c_slave_mem_read+0x170>)
 80019f8:	f7ff f923 	bl	8000c42 <I2C_CheckEvent>
 80019fc:	4603      	mov	r3, r0
 80019fe:	2b00      	cmp	r3, #0
 8001a00:	d0f0      	beq.n	80019e4 <i2c_slave_mem_read+0x10c>
		}
		if(i==1)
 8001a02:	7bfb      	ldrb	r3, [r7, #15]
 8001a04:	2b01      	cmp	r3, #1
 8001a06:	d103      	bne.n	8001a10 <i2c_slave_mem_read+0x138>
			I2C_AcknowledgeConfig(I2C1,DISABLE);
 8001a08:	2100      	movs	r1, #0
 8001a0a:	480f      	ldr	r0, [pc, #60]	; (8001a48 <i2c_slave_mem_read+0x170>)
 8001a0c:	f7ff f8c1 	bl	8000b92 <I2C_AcknowledgeConfig>
		writeBuffer[bytesNum-i] = I2C_ReceiveData(I2C1);
 8001a10:	797a      	ldrb	r2, [r7, #5]
 8001a12:	7bfb      	ldrb	r3, [r7, #15]
 8001a14:	1ad3      	subs	r3, r2, r3
 8001a16:	461a      	mov	r2, r3
 8001a18:	683b      	ldr	r3, [r7, #0]
 8001a1a:	189c      	adds	r4, r3, r2
 8001a1c:	480a      	ldr	r0, [pc, #40]	; (8001a48 <i2c_slave_mem_read+0x170>)
 8001a1e:	f7ff f8e6 	bl	8000bee <I2C_ReceiveData>
 8001a22:	4603      	mov	r3, r0
 8001a24:	7023      	strb	r3, [r4, #0]
		i--;
 8001a26:	7bfb      	ldrb	r3, [r7, #15]
 8001a28:	3b01      	subs	r3, #1
 8001a2a:	73fb      	strb	r3, [r7, #15]
	while(i>0)
 8001a2c:	7bfb      	ldrb	r3, [r7, #15]
 8001a2e:	2b00      	cmp	r3, #0
 8001a30:	d1e0      	bne.n	80019f4 <i2c_slave_mem_read+0x11c>
		//uart_printf("ff\n");
	}
	I2C_GenerateSTOP(I2C1,ENABLE);
 8001a32:	2101      	movs	r1, #1
 8001a34:	4804      	ldr	r0, [pc, #16]	; (8001a48 <i2c_slave_mem_read+0x170>)
 8001a36:	f7ff f88d 	bl	8000b54 <I2C_GenerateSTOP>
	//uart_printf("gg\n");
	timeout_alarm_off();
 8001a3a:	f000 fcb7 	bl	80023ac <timeout_alarm_off>
	return 0;
 8001a3e:	2300      	movs	r3, #0
}
 8001a40:	4618      	mov	r0, r3
 8001a42:	3714      	adds	r7, #20
 8001a44:	46bd      	mov	sp, r7
 8001a46:	bd90      	pop	{r4, r7, pc}
 8001a48:	40005400 	.word	0x40005400
 8001a4c:	00030001 	.word	0x00030001
 8001a50:	00070082 	.word	0x00070082
 8001a54:	00070084 	.word	0x00070084
 8001a58:	00030002 	.word	0x00030002
 8001a5c:	00030040 	.word	0x00030040

08001a60 <i2c_slave_mem_write>:

int8_t i2c_slave_mem_write(uint8_t slaveAddr, uint8_t registerAddr, uint8_t writedata)
{
 8001a60:	b580      	push	{r7, lr}
 8001a62:	b082      	sub	sp, #8
 8001a64:	af00      	add	r7, sp, #0
 8001a66:	4603      	mov	r3, r0
 8001a68:	71fb      	strb	r3, [r7, #7]
 8001a6a:	460b      	mov	r3, r1
 8001a6c:	71bb      	strb	r3, [r7, #6]
 8001a6e:	4613      	mov	r3, r2
 8001a70:	717b      	strb	r3, [r7, #5]
	timeout_alarm_set(20);
 8001a72:	2014      	movs	r0, #20
 8001a74:	f000 fc70 	bl	8002358 <timeout_alarm_set>

	I2C_GenerateSTART(I2C1,ENABLE);
 8001a78:	2101      	movs	r1, #1
 8001a7a:	482f      	ldr	r0, [pc, #188]	; (8001b38 <i2c_slave_mem_write+0xd8>)
 8001a7c:	f7ff f84b 	bl	8000b16 <I2C_GenerateSTART>
	while (!I2C_CheckEvent(I2C1, I2C_EVENT_MASTER_MODE_SELECT))
 8001a80:	e007      	b.n	8001a92 <i2c_slave_mem_write+0x32>
	{
			if(timeout_alarm_status_check() == 1)
 8001a82:	f000 fc87 	bl	8002394 <timeout_alarm_status_check>
 8001a86:	4603      	mov	r3, r0
 8001a88:	2b01      	cmp	r3, #1
 8001a8a:	d102      	bne.n	8001a92 <i2c_slave_mem_write+0x32>
				return -1;
 8001a8c:	f04f 33ff 	mov.w	r3, #4294967295
 8001a90:	e04d      	b.n	8001b2e <i2c_slave_mem_write+0xce>
	while (!I2C_CheckEvent(I2C1, I2C_EVENT_MASTER_MODE_SELECT))
 8001a92:	492a      	ldr	r1, [pc, #168]	; (8001b3c <i2c_slave_mem_write+0xdc>)
 8001a94:	4828      	ldr	r0, [pc, #160]	; (8001b38 <i2c_slave_mem_write+0xd8>)
 8001a96:	f7ff f8d4 	bl	8000c42 <I2C_CheckEvent>
 8001a9a:	4603      	mov	r3, r0
 8001a9c:	2b00      	cmp	r3, #0
 8001a9e:	d0f0      	beq.n	8001a82 <i2c_slave_mem_write+0x22>
	}

	I2C_Send7bitAddress(I2C1, (slaveAddr<<1), I2C_Direction_Transmitter);
 8001aa0:	79fb      	ldrb	r3, [r7, #7]
 8001aa2:	005b      	lsls	r3, r3, #1
 8001aa4:	b2db      	uxtb	r3, r3
 8001aa6:	2200      	movs	r2, #0
 8001aa8:	4619      	mov	r1, r3
 8001aaa:	4823      	ldr	r0, [pc, #140]	; (8001b38 <i2c_slave_mem_write+0xd8>)
 8001aac:	f7ff f8ac 	bl	8000c08 <I2C_Send7bitAddress>
	while (!I2C_CheckEvent(I2C1, I2C_EVENT_MASTER_TRANSMITTER_MODE_SELECTED))
 8001ab0:	e007      	b.n	8001ac2 <i2c_slave_mem_write+0x62>
	{
			if(timeout_alarm_status_check() == 1)
 8001ab2:	f000 fc6f 	bl	8002394 <timeout_alarm_status_check>
 8001ab6:	4603      	mov	r3, r0
 8001ab8:	2b01      	cmp	r3, #1
 8001aba:	d102      	bne.n	8001ac2 <i2c_slave_mem_write+0x62>
				return -1;
 8001abc:	f04f 33ff 	mov.w	r3, #4294967295
 8001ac0:	e035      	b.n	8001b2e <i2c_slave_mem_write+0xce>
	while (!I2C_CheckEvent(I2C1, I2C_EVENT_MASTER_TRANSMITTER_MODE_SELECTED))
 8001ac2:	491f      	ldr	r1, [pc, #124]	; (8001b40 <i2c_slave_mem_write+0xe0>)
 8001ac4:	481c      	ldr	r0, [pc, #112]	; (8001b38 <i2c_slave_mem_write+0xd8>)
 8001ac6:	f7ff f8bc 	bl	8000c42 <I2C_CheckEvent>
 8001aca:	4603      	mov	r3, r0
 8001acc:	2b00      	cmp	r3, #0
 8001ace:	d0f0      	beq.n	8001ab2 <i2c_slave_mem_write+0x52>
	}

	I2C_SendData(I2C1,registerAddr);
 8001ad0:	79bb      	ldrb	r3, [r7, #6]
 8001ad2:	4619      	mov	r1, r3
 8001ad4:	4818      	ldr	r0, [pc, #96]	; (8001b38 <i2c_slave_mem_write+0xd8>)
 8001ad6:	f7ff f87b 	bl	8000bd0 <I2C_SendData>
	while (!I2C_CheckEvent(I2C1, I2C_EVENT_MASTER_BYTE_TRANSMITTED))
 8001ada:	e007      	b.n	8001aec <i2c_slave_mem_write+0x8c>
	{
			if(timeout_alarm_status_check() == 1)
 8001adc:	f000 fc5a 	bl	8002394 <timeout_alarm_status_check>
 8001ae0:	4603      	mov	r3, r0
 8001ae2:	2b01      	cmp	r3, #1
 8001ae4:	d102      	bne.n	8001aec <i2c_slave_mem_write+0x8c>
				return -1;
 8001ae6:	f04f 33ff 	mov.w	r3, #4294967295
 8001aea:	e020      	b.n	8001b2e <i2c_slave_mem_write+0xce>
	while (!I2C_CheckEvent(I2C1, I2C_EVENT_MASTER_BYTE_TRANSMITTED))
 8001aec:	4915      	ldr	r1, [pc, #84]	; (8001b44 <i2c_slave_mem_write+0xe4>)
 8001aee:	4812      	ldr	r0, [pc, #72]	; (8001b38 <i2c_slave_mem_write+0xd8>)
 8001af0:	f7ff f8a7 	bl	8000c42 <I2C_CheckEvent>
 8001af4:	4603      	mov	r3, r0
 8001af6:	2b00      	cmp	r3, #0
 8001af8:	d0f0      	beq.n	8001adc <i2c_slave_mem_write+0x7c>
	}

	I2C_SendData(I2C1,writedata);
 8001afa:	797b      	ldrb	r3, [r7, #5]
 8001afc:	4619      	mov	r1, r3
 8001afe:	480e      	ldr	r0, [pc, #56]	; (8001b38 <i2c_slave_mem_write+0xd8>)
 8001b00:	f7ff f866 	bl	8000bd0 <I2C_SendData>
	while (!I2C_CheckEvent(I2C1, I2C_EVENT_MASTER_BYTE_TRANSMITTED))
 8001b04:	e007      	b.n	8001b16 <i2c_slave_mem_write+0xb6>
	{
			if(timeout_alarm_status_check() == 1)
 8001b06:	f000 fc45 	bl	8002394 <timeout_alarm_status_check>
 8001b0a:	4603      	mov	r3, r0
 8001b0c:	2b01      	cmp	r3, #1
 8001b0e:	d102      	bne.n	8001b16 <i2c_slave_mem_write+0xb6>
				return -1;
 8001b10:	f04f 33ff 	mov.w	r3, #4294967295
 8001b14:	e00b      	b.n	8001b2e <i2c_slave_mem_write+0xce>
	while (!I2C_CheckEvent(I2C1, I2C_EVENT_MASTER_BYTE_TRANSMITTED))
 8001b16:	490b      	ldr	r1, [pc, #44]	; (8001b44 <i2c_slave_mem_write+0xe4>)
 8001b18:	4807      	ldr	r0, [pc, #28]	; (8001b38 <i2c_slave_mem_write+0xd8>)
 8001b1a:	f7ff f892 	bl	8000c42 <I2C_CheckEvent>
 8001b1e:	4603      	mov	r3, r0
 8001b20:	2b00      	cmp	r3, #0
 8001b22:	d0f0      	beq.n	8001b06 <i2c_slave_mem_write+0xa6>
	}

	I2C_GenerateSTOP(I2C1,ENABLE);
 8001b24:	2101      	movs	r1, #1
 8001b26:	4804      	ldr	r0, [pc, #16]	; (8001b38 <i2c_slave_mem_write+0xd8>)
 8001b28:	f7ff f814 	bl	8000b54 <I2C_GenerateSTOP>
//	while (!I2C_CheckEvent(I2C1, I2C_EVENT_MASTER_BYTE_TRANSMITTED))
//	{
//			if(timeout_alarm_status_check() == 1)
//				return -1;
//	}
	return 0;
 8001b2c:	2300      	movs	r3, #0
}
 8001b2e:	4618      	mov	r0, r3
 8001b30:	3708      	adds	r7, #8
 8001b32:	46bd      	mov	sp, r7
 8001b34:	bd80      	pop	{r7, pc}
 8001b36:	bf00      	nop
 8001b38:	40005400 	.word	0x40005400
 8001b3c:	00030001 	.word	0x00030001
 8001b40:	00070082 	.word	0x00070082
 8001b44:	00070084 	.word	0x00070084

08001b48 <uart_console_init>:
uint32_t previousTime=0;
uint32_t currentTime=0;
uint32_t elapsed_time_in_seconds=0;

void uart_console_init(uint32_t baudRate)
{
 8001b48:	b580      	push	{r7, lr}
 8001b4a:	b088      	sub	sp, #32
 8001b4c:	af00      	add	r7, sp, #0
 8001b4e:	6078      	str	r0, [r7, #4]
	GPIO_InitTypeDef GPIO_InitStructure;
	USART_InitTypeDef USART_InitStructure;

	/* Enable peripheral clocks for USART1 on GPIOA */
	RCC_APB2PeriphClockCmd(RCC_APB2Periph_USART1 | RCC_APB2Periph_GPIOA |
 8001b50:	2101      	movs	r1, #1
 8001b52:	f244 0005 	movw	r0, #16389	; 0x4005
 8001b56:	f7ff f951 	bl	8000dfc <RCC_APB2PeriphClockCmd>
						   RCC_APB2Periph_AFIO, ENABLE);

	/* Configure PA9 and PA10 as USART1 TX/RX */

	/* PA9 = alternate function push/pull output */
	GPIO_InitStructure.GPIO_Pin = GPIO_Pin_9;
 8001b5a:	f44f 7300 	mov.w	r3, #512	; 0x200
 8001b5e:	83bb      	strh	r3, [r7, #28]
	GPIO_InitStructure.GPIO_Speed = GPIO_Speed_50MHz;
 8001b60:	2303      	movs	r3, #3
 8001b62:	77bb      	strb	r3, [r7, #30]
	GPIO_InitStructure.GPIO_Mode = GPIO_Mode_AF_PP;
 8001b64:	2318      	movs	r3, #24
 8001b66:	77fb      	strb	r3, [r7, #31]
	GPIO_Init(GPIOA, &GPIO_InitStructure);
 8001b68:	f107 031c 	add.w	r3, r7, #28
 8001b6c:	4619      	mov	r1, r3
 8001b6e:	4814      	ldr	r0, [pc, #80]	; (8001bc0 <uart_console_init+0x78>)
 8001b70:	f7fe fe34 	bl	80007dc <GPIO_Init>

	/* PA10 = floating input */
	GPIO_InitStructure.GPIO_Pin = GPIO_Pin_10;
 8001b74:	f44f 6380 	mov.w	r3, #1024	; 0x400
 8001b78:	83bb      	strh	r3, [r7, #28]
	GPIO_InitStructure.GPIO_Mode = GPIO_Mode_IN_FLOATING;
 8001b7a:	2304      	movs	r3, #4
 8001b7c:	77fb      	strb	r3, [r7, #31]
	GPIO_Init(GPIOA, &GPIO_InitStructure);
 8001b7e:	f107 031c 	add.w	r3, r7, #28
 8001b82:	4619      	mov	r1, r3
 8001b84:	480e      	ldr	r0, [pc, #56]	; (8001bc0 <uart_console_init+0x78>)
 8001b86:	f7fe fe29 	bl	80007dc <GPIO_Init>

	/* Configure and initialize usart... */
	USART_InitStructure.USART_BaudRate = baudRate;
 8001b8a:	687b      	ldr	r3, [r7, #4]
 8001b8c:	60fb      	str	r3, [r7, #12]
	USART_InitStructure.USART_WordLength = USART_WordLength_8b;
 8001b8e:	2300      	movs	r3, #0
 8001b90:	823b      	strh	r3, [r7, #16]
	USART_InitStructure.USART_StopBits = USART_StopBits_1;
 8001b92:	2300      	movs	r3, #0
 8001b94:	827b      	strh	r3, [r7, #18]
	USART_InitStructure.USART_Parity = USART_Parity_No;
 8001b96:	2300      	movs	r3, #0
 8001b98:	82bb      	strh	r3, [r7, #20]
	USART_InitStructure.USART_HardwareFlowControl = USART_HardwareFlowControl_None;
 8001b9a:	2300      	movs	r3, #0
 8001b9c:	833b      	strh	r3, [r7, #24]
	USART_InitStructure.USART_Mode = USART_Mode_Rx | USART_Mode_Tx;
 8001b9e:	230c      	movs	r3, #12
 8001ba0:	82fb      	strh	r3, [r7, #22]

	USART_Init(USART1, &USART_InitStructure);
 8001ba2:	f107 030c 	add.w	r3, r7, #12
 8001ba6:	4619      	mov	r1, r3
 8001ba8:	4806      	ldr	r0, [pc, #24]	; (8001bc4 <uart_console_init+0x7c>)
 8001baa:	f7ff fceb 	bl	8001584 <USART_Init>

	/* Enable USART1 */
	USART_Cmd(USART1, ENABLE);
 8001bae:	2101      	movs	r1, #1
 8001bb0:	4804      	ldr	r0, [pc, #16]	; (8001bc4 <uart_console_init+0x7c>)
 8001bb2:	f7ff fda1 	bl	80016f8 <USART_Cmd>
}
 8001bb6:	bf00      	nop
 8001bb8:	3720      	adds	r7, #32
 8001bba:	46bd      	mov	sp, r7
 8001bbc:	bd80      	pop	{r7, pc}
 8001bbe:	bf00      	nop
 8001bc0:	40010800 	.word	0x40010800
 8001bc4:	40013800 	.word	0x40013800

08001bc8 <debug_led_init>:

void debug_led_init(void)
{
 8001bc8:	b580      	push	{r7, lr}
 8001bca:	b082      	sub	sp, #8
 8001bcc:	af00      	add	r7, sp, #0
	GPIO_InitTypeDef GPIO_InitStructure;

	// Enable GPIO clock
	RCC_APB2PeriphClockCmd(RCC_APB2Periph_AFIO, ENABLE);
 8001bce:	2101      	movs	r1, #1
 8001bd0:	2001      	movs	r0, #1
 8001bd2:	f7ff f913 	bl	8000dfc <RCC_APB2PeriphClockCmd>
	RCC_APB2PeriphClockCmd(RCC_APB2Periph_GPIOC, ENABLE);
 8001bd6:	2101      	movs	r1, #1
 8001bd8:	2010      	movs	r0, #16
 8001bda:	f7ff f90f 	bl	8000dfc <RCC_APB2PeriphClockCmd>

	// Configure pin as output push-pull (LED)
	GPIO_InitStructure.GPIO_Pin = GPIO_Pin_8;
 8001bde:	f44f 7380 	mov.w	r3, #256	; 0x100
 8001be2:	80bb      	strh	r3, [r7, #4]
	GPIO_InitStructure.GPIO_Mode = GPIO_Mode_Out_PP;
 8001be4:	2310      	movs	r3, #16
 8001be6:	71fb      	strb	r3, [r7, #7]
	GPIO_InitStructure.GPIO_Speed = GPIO_Speed_50MHz;
 8001be8:	2303      	movs	r3, #3
 8001bea:	71bb      	strb	r3, [r7, #6]
	GPIO_Init(GPIOC, &GPIO_InitStructure);
 8001bec:	1d3b      	adds	r3, r7, #4
 8001bee:	4619      	mov	r1, r3
 8001bf0:	4803      	ldr	r0, [pc, #12]	; (8001c00 <debug_led_init+0x38>)
 8001bf2:	f7fe fdf3 	bl	80007dc <GPIO_Init>
}
 8001bf6:	bf00      	nop
 8001bf8:	3708      	adds	r7, #8
 8001bfa:	46bd      	mov	sp, r7
 8001bfc:	bd80      	pop	{r7, pc}
 8001bfe:	bf00      	nop
 8001c00:	40011000 	.word	0x40011000

08001c04 <main>:


int main(void)
{
 8001c04:	b580      	push	{r7, lr}
 8001c06:	b084      	sub	sp, #16
 8001c08:	af00      	add	r7, sp, #0
	uint8_t data=0;
 8001c0a:	2300      	movs	r3, #0
 8001c0c:	72fb      	strb	r3, [r7, #11]
	uint8_t gpio_val;
	uint32_t k=0;
 8001c0e:	2300      	movs	r3, #0
 8001c10:	60fb      	str	r3, [r7, #12]

	int32_t calc1=0;
 8001c12:	2300      	movs	r3, #0
 8001c14:	607b      	str	r3, [r7, #4]
	int32_t calc2=0;
 8001c16:	2300      	movs	r3, #0
 8001c18:	603b      	str	r3, [r7, #0]


	timer3_init();
 8001c1a:	f000 fad3 	bl	80021c4 <timer3_init>
	motors_pwm_init();
 8001c1e:	f000 fb05 	bl	800222c <motors_pwm_init>
	I2C_LowLevel_Init(400000, 0x38);
 8001c22:	2138      	movs	r1, #56	; 0x38
 8001c24:	4836      	ldr	r0, [pc, #216]	; (8001d00 <main+0xfc>)
 8001c26:	f7ff fe19 	bl	800185c <I2C_LowLevel_Init>
	debug_led_init();
 8001c2a:	f7ff ffcd 	bl	8001bc8 <debug_led_init>
	uart_console_init(9600);
 8001c2e:	f44f 5016 	mov.w	r0, #9600	; 0x2580
 8001c32:	f7ff ff89 	bl	8001b48 <uart_console_init>
	delay_ms(2000);
 8001c36:	f44f 60fa 	mov.w	r0, #2000	; 0x7d0
 8001c3a:	f000 fb77 	bl	800232c <delay_ms>
	uart_printf("start...\n");
 8001c3e:	4831      	ldr	r0, [pc, #196]	; (8001d04 <main+0x100>)
 8001c40:	f000 f904 	bl	8001e4c <uart_printf>
	if(gyro_init(0x10)<0)
 8001c44:	2010      	movs	r0, #16
 8001c46:	f7ff fda3 	bl	8001790 <gyro_init>
 8001c4a:	4603      	mov	r3, r0
 8001c4c:	2b00      	cmp	r3, #0
 8001c4e:	da03      	bge.n	8001c58 <main+0x54>
	{
		uart_printf("fail1...\n");
 8001c50:	482d      	ldr	r0, [pc, #180]	; (8001d08 <main+0x104>)
 8001c52:	f000 f8fb 	bl	8001e4c <uart_printf>
		while(1);
 8001c56:	e7fe      	b.n	8001c56 <main+0x52>
	}


    while(1)
    {
    	if(gyro_measurement_read(gyroData)<0)
 8001c58:	482c      	ldr	r0, [pc, #176]	; (8001d0c <main+0x108>)
 8001c5a:	f7ff fdc9 	bl	80017f0 <gyro_measurement_read>
 8001c5e:	4603      	mov	r3, r0
 8001c60:	2b00      	cmp	r3, #0
 8001c62:	da02      	bge.n	8001c6a <main+0x66>
    		uart_printf("fail2...\n");
 8001c64:	482a      	ldr	r0, [pc, #168]	; (8001d10 <main+0x10c>)
 8001c66:	f000 f8f1 	bl	8001e4c <uart_printf>
    	currentTime = millis();
 8001c6a:	f000 fb55 	bl	8002318 <millis>
 8001c6e:	4602      	mov	r2, r0
 8001c70:	4b28      	ldr	r3, [pc, #160]	; (8001d14 <main+0x110>)
 8001c72:	601a      	str	r2, [r3, #0]
    	elapsed_time_in_seconds = (1000/(currentTime-previousTime));
 8001c74:	4b27      	ldr	r3, [pc, #156]	; (8001d14 <main+0x110>)
 8001c76:	681a      	ldr	r2, [r3, #0]
 8001c78:	4b27      	ldr	r3, [pc, #156]	; (8001d18 <main+0x114>)
 8001c7a:	681b      	ldr	r3, [r3, #0]
 8001c7c:	1ad3      	subs	r3, r2, r3
 8001c7e:	f44f 727a 	mov.w	r2, #1000	; 0x3e8
 8001c82:	fbb2 f3f3 	udiv	r3, r2, r3
 8001c86:	4a25      	ldr	r2, [pc, #148]	; (8001d1c <main+0x118>)
 8001c88:	6013      	str	r3, [r2, #0]

    	calc1 = (gyroData[0]+26)*100000;
 8001c8a:	4b20      	ldr	r3, [pc, #128]	; (8001d0c <main+0x108>)
 8001c8c:	f9b3 3000 	ldrsh.w	r3, [r3]
 8001c90:	331a      	adds	r3, #26
 8001c92:	4a23      	ldr	r2, [pc, #140]	; (8001d20 <main+0x11c>)
 8001c94:	fb02 f303 	mul.w	r3, r2, r3
 8001c98:	607b      	str	r3, [r7, #4]
    	calc2 = elapsed_time_in_seconds*(32.8f);
 8001c9a:	4b20      	ldr	r3, [pc, #128]	; (8001d1c <main+0x118>)
 8001c9c:	681b      	ldr	r3, [r3, #0]
 8001c9e:	4618      	mov	r0, r3
 8001ca0:	f7fe fb6c 	bl	800037c <__aeabi_ui2f>
 8001ca4:	4603      	mov	r3, r0
 8001ca6:	491f      	ldr	r1, [pc, #124]	; (8001d24 <main+0x120>)
 8001ca8:	4618      	mov	r0, r3
 8001caa:	f7fe fbbf 	bl	800042c <__aeabi_fmul>
 8001cae:	4603      	mov	r3, r0
 8001cb0:	4618      	mov	r0, r3
 8001cb2:	f7fe fd0b 	bl	80006cc <__aeabi_f2iz>
 8001cb6:	4603      	mov	r3, r0
 8001cb8:	603b      	str	r3, [r7, #0]
    	gyroSum = (calc1/calc2)+gyroSum;
 8001cba:	687a      	ldr	r2, [r7, #4]
 8001cbc:	683b      	ldr	r3, [r7, #0]
 8001cbe:	fb92 f2f3 	sdiv	r2, r2, r3
 8001cc2:	4b19      	ldr	r3, [pc, #100]	; (8001d28 <main+0x124>)
 8001cc4:	681b      	ldr	r3, [r3, #0]
 8001cc6:	4413      	add	r3, r2
 8001cc8:	4a17      	ldr	r2, [pc, #92]	; (8001d28 <main+0x124>)
 8001cca:	6013      	str	r3, [r2, #0]
    	previousTime = currentTime;
 8001ccc:	4b11      	ldr	r3, [pc, #68]	; (8001d14 <main+0x110>)
 8001cce:	681b      	ldr	r3, [r3, #0]
 8001cd0:	4a11      	ldr	r2, [pc, #68]	; (8001d18 <main+0x114>)
 8001cd2:	6013      	str	r3, [r2, #0]

    	k++;
 8001cd4:	68fb      	ldr	r3, [r7, #12]
 8001cd6:	3301      	adds	r3, #1
 8001cd8:	60fb      	str	r3, [r7, #12]
    	if(k==1000)
 8001cda:	68fb      	ldr	r3, [r7, #12]
 8001cdc:	f5b3 7f7a 	cmp.w	r3, #1000	; 0x3e8
 8001ce0:	d1ba      	bne.n	8001c58 <main+0x54>
    	{
    		uart_printf("x_angle: %d\n",(int32_t)(gyroSum/100000));
 8001ce2:	4b11      	ldr	r3, [pc, #68]	; (8001d28 <main+0x124>)
 8001ce4:	681b      	ldr	r3, [r3, #0]
 8001ce6:	4a11      	ldr	r2, [pc, #68]	; (8001d2c <main+0x128>)
 8001ce8:	fb82 1203 	smull	r1, r2, r2, r3
 8001cec:	1352      	asrs	r2, r2, #13
 8001cee:	17db      	asrs	r3, r3, #31
 8001cf0:	1ad3      	subs	r3, r2, r3
 8001cf2:	4619      	mov	r1, r3
 8001cf4:	480e      	ldr	r0, [pc, #56]	; (8001d30 <main+0x12c>)
 8001cf6:	f000 f8a9 	bl	8001e4c <uart_printf>
//    		uart_printf("calc1: %d\n", (int32_t)calc1);
    		k=0;
 8001cfa:	2300      	movs	r3, #0
 8001cfc:	60fb      	str	r3, [r7, #12]
    	if(gyro_measurement_read(gyroData)<0)
 8001cfe:	e7ab      	b.n	8001c58 <main+0x54>
 8001d00:	00061a80 	.word	0x00061a80
 8001d04:	08002430 	.word	0x08002430
 8001d08:	0800243c 	.word	0x0800243c
 8001d0c:	20000054 	.word	0x20000054
 8001d10:	08002448 	.word	0x08002448
 8001d14:	20000038 	.word	0x20000038
 8001d18:	20000034 	.word	0x20000034
 8001d1c:	2000003c 	.word	0x2000003c
 8001d20:	000186a0 	.word	0x000186a0
 8001d24:	42033333 	.word	0x42033333
 8001d28:	20000030 	.word	0x20000030
 8001d2c:	14f8b589 	.word	0x14f8b589
 8001d30:	08002454 	.word	0x08002454

08001d34 <uart_putc>:
#include "stdarg.h"
#include "stm32f10x_usart.h"
#include "small_printf.h"

void uart_putc(char dataByte)
{
 8001d34:	b580      	push	{r7, lr}
 8001d36:	b082      	sub	sp, #8
 8001d38:	af00      	add	r7, sp, #0
 8001d3a:	4603      	mov	r3, r0
 8001d3c:	71fb      	strb	r3, [r7, #7]
	USART_SendData(PRINTF_USART, dataByte);
 8001d3e:	79fb      	ldrb	r3, [r7, #7]
 8001d40:	b29b      	uxth	r3, r3
 8001d42:	4619      	mov	r1, r3
 8001d44:	4807      	ldr	r0, [pc, #28]	; (8001d64 <uart_putc+0x30>)
 8001d46:	f7ff fcf6 	bl	8001736 <USART_SendData>
	while(USART_GetFlagStatus(PRINTF_USART, USART_FLAG_TC) == 0);
 8001d4a:	bf00      	nop
 8001d4c:	2140      	movs	r1, #64	; 0x40
 8001d4e:	4805      	ldr	r0, [pc, #20]	; (8001d64 <uart_putc+0x30>)
 8001d50:	f7ff fd02 	bl	8001758 <USART_GetFlagStatus>
 8001d54:	4603      	mov	r3, r0
 8001d56:	2b00      	cmp	r3, #0
 8001d58:	d0f8      	beq.n	8001d4c <uart_putc+0x18>
}
 8001d5a:	bf00      	nop
 8001d5c:	3708      	adds	r7, #8
 8001d5e:	46bd      	mov	sp, r7
 8001d60:	bd80      	pop	{r7, pc}
 8001d62:	bf00      	nop
 8001d64:	40013800 	.word	0x40013800

08001d68 <uart_puts>:

void uart_puts(char *dataString)
{
 8001d68:	b580      	push	{r7, lr}
 8001d6a:	b084      	sub	sp, #16
 8001d6c:	af00      	add	r7, sp, #0
 8001d6e:	6078      	str	r0, [r7, #4]
	uint8_t i;

	while(dataString[i] != '\0')
 8001d70:	e016      	b.n	8001da0 <uart_puts+0x38>
	{
		USART_SendData(PRINTF_USART, dataString[i]);
 8001d72:	7bfb      	ldrb	r3, [r7, #15]
 8001d74:	687a      	ldr	r2, [r7, #4]
 8001d76:	4413      	add	r3, r2
 8001d78:	781b      	ldrb	r3, [r3, #0]
 8001d7a:	b29b      	uxth	r3, r3
 8001d7c:	4619      	mov	r1, r3
 8001d7e:	480e      	ldr	r0, [pc, #56]	; (8001db8 <uart_puts+0x50>)
 8001d80:	f7ff fcd9 	bl	8001736 <USART_SendData>
		//wait for transmission to complete
		while(USART_GetFlagStatus(PRINTF_USART, USART_FLAG_TC) == 0);
 8001d84:	bf00      	nop
 8001d86:	2140      	movs	r1, #64	; 0x40
 8001d88:	480b      	ldr	r0, [pc, #44]	; (8001db8 <uart_puts+0x50>)
 8001d8a:	f7ff fce5 	bl	8001758 <USART_GetFlagStatus>
 8001d8e:	4603      	mov	r3, r0
 8001d90:	2b00      	cmp	r3, #0
 8001d92:	d0f8      	beq.n	8001d86 <uart_puts+0x1e>
		i++;
 8001d94:	7bfb      	ldrb	r3, [r7, #15]
 8001d96:	3301      	adds	r3, #1
 8001d98:	73fb      	strb	r3, [r7, #15]
		if(i>=100)
 8001d9a:	7bfb      	ldrb	r3, [r7, #15]
 8001d9c:	2b63      	cmp	r3, #99	; 0x63
 8001d9e:	d806      	bhi.n	8001dae <uart_puts+0x46>
	while(dataString[i] != '\0')
 8001da0:	7bfb      	ldrb	r3, [r7, #15]
 8001da2:	687a      	ldr	r2, [r7, #4]
 8001da4:	4413      	add	r3, r2
 8001da6:	781b      	ldrb	r3, [r3, #0]
 8001da8:	2b00      	cmp	r3, #0
 8001daa:	d1e2      	bne.n	8001d72 <uart_puts+0xa>
			break;
	}
}
 8001dac:	e000      	b.n	8001db0 <uart_puts+0x48>
			break;
 8001dae:	bf00      	nop
}
 8001db0:	bf00      	nop
 8001db2:	3710      	adds	r7, #16
 8001db4:	46bd      	mov	sp, r7
 8001db6:	bd80      	pop	{r7, pc}
 8001db8:	40013800 	.word	0x40013800

08001dbc <xtoa>:
			10,     // +8
			 1,     // +9
};

void xtoa(unsigned long x, const unsigned long *dp)
{
 8001dbc:	b580      	push	{r7, lr}
 8001dbe:	b084      	sub	sp, #16
 8001dc0:	af00      	add	r7, sp, #0
 8001dc2:	6078      	str	r0, [r7, #4]
 8001dc4:	6039      	str	r1, [r7, #0]
	char c;
	unsigned long d;
	if(x) {
 8001dc6:	687b      	ldr	r3, [r7, #4]
 8001dc8:	2b00      	cmp	r3, #0
 8001dca:	d025      	beq.n	8001e18 <xtoa+0x5c>
		while(x < *dp) ++dp;
 8001dcc:	e002      	b.n	8001dd4 <xtoa+0x18>
 8001dce:	683b      	ldr	r3, [r7, #0]
 8001dd0:	3304      	adds	r3, #4
 8001dd2:	603b      	str	r3, [r7, #0]
 8001dd4:	683b      	ldr	r3, [r7, #0]
 8001dd6:	681a      	ldr	r2, [r3, #0]
 8001dd8:	687b      	ldr	r3, [r7, #4]
 8001dda:	429a      	cmp	r2, r3
 8001ddc:	d8f7      	bhi.n	8001dce <xtoa+0x12>
		do {
			d = *dp++;
 8001dde:	683b      	ldr	r3, [r7, #0]
 8001de0:	1d1a      	adds	r2, r3, #4
 8001de2:	603a      	str	r2, [r7, #0]
 8001de4:	681b      	ldr	r3, [r3, #0]
 8001de6:	60bb      	str	r3, [r7, #8]
			c = '0';
 8001de8:	2330      	movs	r3, #48	; 0x30
 8001dea:	73fb      	strb	r3, [r7, #15]
			while(x >= d) ++c, x -= d;
 8001dec:	e006      	b.n	8001dfc <xtoa+0x40>
 8001dee:	7bfb      	ldrb	r3, [r7, #15]
 8001df0:	3301      	adds	r3, #1
 8001df2:	73fb      	strb	r3, [r7, #15]
 8001df4:	687a      	ldr	r2, [r7, #4]
 8001df6:	68bb      	ldr	r3, [r7, #8]
 8001df8:	1ad3      	subs	r3, r2, r3
 8001dfa:	607b      	str	r3, [r7, #4]
 8001dfc:	687a      	ldr	r2, [r7, #4]
 8001dfe:	68bb      	ldr	r3, [r7, #8]
 8001e00:	429a      	cmp	r2, r3
 8001e02:	d2f4      	bcs.n	8001dee <xtoa+0x32>
			uart_putc(c);
 8001e04:	7bfb      	ldrb	r3, [r7, #15]
 8001e06:	4618      	mov	r0, r3
 8001e08:	f7ff ff94 	bl	8001d34 <uart_putc>
		} while(!(d & 1));
 8001e0c:	68bb      	ldr	r3, [r7, #8]
 8001e0e:	f003 0301 	and.w	r3, r3, #1
 8001e12:	2b00      	cmp	r3, #0
 8001e14:	d0e3      	beq.n	8001dde <xtoa+0x22>
	} else
		uart_putc('0');
}
 8001e16:	e002      	b.n	8001e1e <xtoa+0x62>
		uart_putc('0');
 8001e18:	2030      	movs	r0, #48	; 0x30
 8001e1a:	f7ff ff8b 	bl	8001d34 <uart_putc>
}
 8001e1e:	bf00      	nop
 8001e20:	3710      	adds	r7, #16
 8001e22:	46bd      	mov	sp, r7
 8001e24:	bd80      	pop	{r7, pc}
	...

08001e28 <puth>:

void puth(unsigned n)
{
 8001e28:	b580      	push	{r7, lr}
 8001e2a:	b082      	sub	sp, #8
 8001e2c:	af00      	add	r7, sp, #0
 8001e2e:	6078      	str	r0, [r7, #4]
	static const char hex[16] = { '0','1','2','3','4','5','6','7','8','9','A','B','C','D','E','F'};
	uart_putc(hex[n & 15]);
 8001e30:	687b      	ldr	r3, [r7, #4]
 8001e32:	f003 030f 	and.w	r3, r3, #15
 8001e36:	4a04      	ldr	r2, [pc, #16]	; (8001e48 <puth+0x20>)
 8001e38:	5cd3      	ldrb	r3, [r2, r3]
 8001e3a:	4618      	mov	r0, r3
 8001e3c:	f7ff ff7a 	bl	8001d34 <uart_putc>
}
 8001e40:	bf00      	nop
 8001e42:	3708      	adds	r7, #8
 8001e44:	46bd      	mov	sp, r7
 8001e46:	bd80      	pop	{r7, pc}
 8001e48:	0800248c 	.word	0x0800248c

08001e4c <uart_printf>:

void uart_printf(char *format, ...)
{
 8001e4c:	b40f      	push	{r0, r1, r2, r3}
 8001e4e:	b580      	push	{r7, lr}
 8001e50:	b084      	sub	sp, #16
 8001e52:	af00      	add	r7, sp, #0
	char c;
	int i;
	long n;

	va_list a;
	va_start(a, format);
 8001e54:	f107 031c 	add.w	r3, r7, #28
 8001e58:	603b      	str	r3, [r7, #0]
	while(c = (*(format++)))
 8001e5a:	e070      	b.n	8001f3e <uart_printf+0xf2>
	{
		if(c == '%') {
 8001e5c:	7bfb      	ldrb	r3, [r7, #15]
 8001e5e:	2b25      	cmp	r3, #37	; 0x25
 8001e60:	d169      	bne.n	8001f36 <uart_printf+0xea>
			switch(c = *format++) {
 8001e62:	69bb      	ldr	r3, [r7, #24]
 8001e64:	1c5a      	adds	r2, r3, #1
 8001e66:	61ba      	str	r2, [r7, #24]
 8001e68:	781b      	ldrb	r3, [r3, #0]
 8001e6a:	73fb      	strb	r3, [r7, #15]
 8001e6c:	7bfb      	ldrb	r3, [r7, #15]
 8001e6e:	2b69      	cmp	r3, #105	; 0x69
 8001e70:	d018      	beq.n	8001ea4 <uart_printf+0x58>
 8001e72:	2b69      	cmp	r3, #105	; 0x69
 8001e74:	dc06      	bgt.n	8001e84 <uart_printf+0x38>
 8001e76:	2b63      	cmp	r3, #99	; 0x63
 8001e78:	d013      	beq.n	8001ea2 <uart_printf+0x56>
 8001e7a:	2b64      	cmp	r3, #100	; 0x64
 8001e7c:	d02a      	beq.n	8001ed4 <uart_printf+0x88>
 8001e7e:	2b00      	cmp	r3, #0
 8001e80:	d066      	beq.n	8001f50 <uart_printf+0x104>
					puth(i >> 8);
					puth(i >> 4);
					puth(i);
					break;
				case 0: return;
				default: goto bad_fmt;
 8001e82:	e058      	b.n	8001f36 <uart_printf+0xea>
			switch(c = *format++) {
 8001e84:	2b75      	cmp	r3, #117	; 0x75
 8001e86:	d00d      	beq.n	8001ea4 <uart_printf+0x58>
 8001e88:	2b78      	cmp	r3, #120	; 0x78
 8001e8a:	d03a      	beq.n	8001f02 <uart_printf+0xb6>
 8001e8c:	2b73      	cmp	r3, #115	; 0x73
 8001e8e:	d000      	beq.n	8001e92 <uart_printf+0x46>
				default: goto bad_fmt;
 8001e90:	e051      	b.n	8001f36 <uart_printf+0xea>
					uart_puts(va_arg(a, char*));
 8001e92:	683b      	ldr	r3, [r7, #0]
 8001e94:	1d1a      	adds	r2, r3, #4
 8001e96:	603a      	str	r2, [r7, #0]
 8001e98:	681b      	ldr	r3, [r3, #0]
 8001e9a:	4618      	mov	r0, r3
 8001e9c:	f7ff ff64 	bl	8001d68 <uart_puts>
					break;
 8001ea0:	e04d      	b.n	8001f3e <uart_printf+0xf2>
 8001ea2:	deff      	udf	#255	; 0xff
					i = va_arg(a, int);
 8001ea4:	683b      	ldr	r3, [r7, #0]
 8001ea6:	1d1a      	adds	r2, r3, #4
 8001ea8:	603a      	str	r2, [r7, #0]
 8001eaa:	681b      	ldr	r3, [r3, #0]
 8001eac:	60bb      	str	r3, [r7, #8]
					if(c == 'i' && i < 0) i = -i, uart_putc('-');
 8001eae:	7bfb      	ldrb	r3, [r7, #15]
 8001eb0:	2b69      	cmp	r3, #105	; 0x69
 8001eb2:	d108      	bne.n	8001ec6 <uart_printf+0x7a>
 8001eb4:	68bb      	ldr	r3, [r7, #8]
 8001eb6:	2b00      	cmp	r3, #0
 8001eb8:	da05      	bge.n	8001ec6 <uart_printf+0x7a>
 8001eba:	68bb      	ldr	r3, [r7, #8]
 8001ebc:	425b      	negs	r3, r3
 8001ebe:	60bb      	str	r3, [r7, #8]
 8001ec0:	202d      	movs	r0, #45	; 0x2d
 8001ec2:	f7ff ff37 	bl	8001d34 <uart_putc>
					xtoa((unsigned)i, dv + 5);
 8001ec6:	68bb      	ldr	r3, [r7, #8]
 8001ec8:	4a25      	ldr	r2, [pc, #148]	; (8001f60 <uart_printf+0x114>)
 8001eca:	4611      	mov	r1, r2
 8001ecc:	4618      	mov	r0, r3
 8001ece:	f7ff ff75 	bl	8001dbc <xtoa>
					break;
 8001ed2:	e034      	b.n	8001f3e <uart_printf+0xf2>
					n = va_arg(a, long);
 8001ed4:	683b      	ldr	r3, [r7, #0]
 8001ed6:	1d1a      	adds	r2, r3, #4
 8001ed8:	603a      	str	r2, [r7, #0]
 8001eda:	681b      	ldr	r3, [r3, #0]
 8001edc:	607b      	str	r3, [r7, #4]
					if(c == 'd' &&  n < 0) n = -n, uart_putc('-');
 8001ede:	7bfb      	ldrb	r3, [r7, #15]
 8001ee0:	2b64      	cmp	r3, #100	; 0x64
 8001ee2:	d108      	bne.n	8001ef6 <uart_printf+0xaa>
 8001ee4:	687b      	ldr	r3, [r7, #4]
 8001ee6:	2b00      	cmp	r3, #0
 8001ee8:	da05      	bge.n	8001ef6 <uart_printf+0xaa>
 8001eea:	687b      	ldr	r3, [r7, #4]
 8001eec:	425b      	negs	r3, r3
 8001eee:	607b      	str	r3, [r7, #4]
 8001ef0:	202d      	movs	r0, #45	; 0x2d
 8001ef2:	f7ff ff1f 	bl	8001d34 <uart_putc>
					xtoa((unsigned long)n, dv);
 8001ef6:	687b      	ldr	r3, [r7, #4]
 8001ef8:	491a      	ldr	r1, [pc, #104]	; (8001f64 <uart_printf+0x118>)
 8001efa:	4618      	mov	r0, r3
 8001efc:	f7ff ff5e 	bl	8001dbc <xtoa>
					break;
 8001f00:	e01d      	b.n	8001f3e <uart_printf+0xf2>
					i = va_arg(a, int);
 8001f02:	683b      	ldr	r3, [r7, #0]
 8001f04:	1d1a      	adds	r2, r3, #4
 8001f06:	603a      	str	r2, [r7, #0]
 8001f08:	681b      	ldr	r3, [r3, #0]
 8001f0a:	60bb      	str	r3, [r7, #8]
					puth(i >> 12);
 8001f0c:	68bb      	ldr	r3, [r7, #8]
 8001f0e:	131b      	asrs	r3, r3, #12
 8001f10:	4618      	mov	r0, r3
 8001f12:	f7ff ff89 	bl	8001e28 <puth>
					puth(i >> 8);
 8001f16:	68bb      	ldr	r3, [r7, #8]
 8001f18:	121b      	asrs	r3, r3, #8
 8001f1a:	4618      	mov	r0, r3
 8001f1c:	f7ff ff84 	bl	8001e28 <puth>
					puth(i >> 4);
 8001f20:	68bb      	ldr	r3, [r7, #8]
 8001f22:	111b      	asrs	r3, r3, #4
 8001f24:	4618      	mov	r0, r3
 8001f26:	f7ff ff7f 	bl	8001e28 <puth>
					puth(i);
 8001f2a:	68bb      	ldr	r3, [r7, #8]
 8001f2c:	4618      	mov	r0, r3
 8001f2e:	f7ff ff7b 	bl	8001e28 <puth>
					break;
 8001f32:	bf00      	nop
 8001f34:	e003      	b.n	8001f3e <uart_printf+0xf2>
			}
		} else
bad_fmt:    uart_putc(c);
 8001f36:	7bfb      	ldrb	r3, [r7, #15]
 8001f38:	4618      	mov	r0, r3
 8001f3a:	f7ff fefb 	bl	8001d34 <uart_putc>
	while(c = (*(format++)))
 8001f3e:	69bb      	ldr	r3, [r7, #24]
 8001f40:	1c5a      	adds	r2, r3, #1
 8001f42:	61ba      	str	r2, [r7, #24]
 8001f44:	781b      	ldrb	r3, [r3, #0]
 8001f46:	73fb      	strb	r3, [r7, #15]
 8001f48:	7bfb      	ldrb	r3, [r7, #15]
 8001f4a:	2b00      	cmp	r3, #0
 8001f4c:	d186      	bne.n	8001e5c <uart_printf+0x10>
 8001f4e:	e000      	b.n	8001f52 <uart_printf+0x106>
				case 0: return;
 8001f50:	bf00      	nop
	}
	va_end(a);
}
 8001f52:	3710      	adds	r7, #16
 8001f54:	46bd      	mov	sp, r7
 8001f56:	e8bd 4080 	ldmia.w	sp!, {r7, lr}
 8001f5a:	b004      	add	sp, #16
 8001f5c:	4770      	bx	lr
 8001f5e:	bf00      	nop
 8001f60:	08002478 	.word	0x08002478
 8001f64:	08002464 	.word	0x08002464

08001f68 <Reset_Handler>:

    .section	.text.Reset_Handler
	.weak	Reset_Handler
	.type	Reset_Handler, %function
Reset_Handler:
  ldr   sp, =_estack    /* Atollic update: set stack pointer */
 8001f68:	f8df d034 	ldr.w	sp, [pc, #52]	; 8001fa0 <LoopFillZerobss+0x14>

/* Copy the data segment initializers from flash to SRAM */
  movs	r1, #0
 8001f6c:	2100      	movs	r1, #0
  b	LoopCopyDataInit
 8001f6e:	e003      	b.n	8001f78 <LoopCopyDataInit>

08001f70 <CopyDataInit>:

CopyDataInit:
	ldr	r3, =_sidata
 8001f70:	4b0c      	ldr	r3, [pc, #48]	; (8001fa4 <LoopFillZerobss+0x18>)
	ldr	r3, [r3, r1]
 8001f72:	585b      	ldr	r3, [r3, r1]
	str	r3, [r0, r1]
 8001f74:	5043      	str	r3, [r0, r1]
	adds	r1, r1, #4
 8001f76:	3104      	adds	r1, #4

08001f78 <LoopCopyDataInit>:

LoopCopyDataInit:
	ldr	r0, =_sdata
 8001f78:	480b      	ldr	r0, [pc, #44]	; (8001fa8 <LoopFillZerobss+0x1c>)
	ldr	r3, =_edata
 8001f7a:	4b0c      	ldr	r3, [pc, #48]	; (8001fac <LoopFillZerobss+0x20>)
	adds	r2, r0, r1
 8001f7c:	1842      	adds	r2, r0, r1
	cmp	r2, r3
 8001f7e:	429a      	cmp	r2, r3
	bcc	CopyDataInit
 8001f80:	d3f6      	bcc.n	8001f70 <CopyDataInit>
	ldr	r2, =_sbss
 8001f82:	4a0b      	ldr	r2, [pc, #44]	; (8001fb0 <LoopFillZerobss+0x24>)
	b	LoopFillZerobss
 8001f84:	e002      	b.n	8001f8c <LoopFillZerobss>

08001f86 <FillZerobss>:
/* Zero fill the bss segment. */
FillZerobss:
	movs	r3, #0
 8001f86:	2300      	movs	r3, #0
	str	r3, [r2], #4
 8001f88:	f842 3b04 	str.w	r3, [r2], #4

08001f8c <LoopFillZerobss>:

LoopFillZerobss:
	ldr	r3, = _ebss
 8001f8c:	4b09      	ldr	r3, [pc, #36]	; (8001fb4 <LoopFillZerobss+0x28>)
	cmp	r2, r3
 8001f8e:	429a      	cmp	r2, r3
	bcc	FillZerobss
 8001f90:	d3f9      	bcc.n	8001f86 <FillZerobss>
	
/* Call the clock system intitialization function.*/
  bl  SystemInit 
 8001f92:	f000 f83d 	bl	8002010 <SystemInit>
/* Call static constructors */
  bl __libc_init_array  
 8001f96:	f000 fa19 	bl	80023cc <__libc_init_array>
/* Call the application's entry point.*/
	bl	main
 8001f9a:	f7ff fe33 	bl	8001c04 <main>
	bx	lr
 8001f9e:	4770      	bx	lr
  ldr   sp, =_estack    /* Atollic update: set stack pointer */
 8001fa0:	20002000 	.word	0x20002000
	ldr	r3, =_sidata
 8001fa4:	080024a4 	.word	0x080024a4
	ldr	r0, =_sdata
 8001fa8:	20000000 	.word	0x20000000
	ldr	r3, =_edata
 8001fac:	20000014 	.word	0x20000014
	ldr	r2, =_sbss
 8001fb0:	20000014 	.word	0x20000014
	ldr	r3, = _ebss
 8001fb4:	20000060 	.word	0x20000060

08001fb8 <ADC1_IRQHandler>:
 * @retval : None
*/
    .section	.text.Default_Handler,"ax",%progbits
Default_Handler:
Infinite_Loop:
	b	Infinite_Loop
 8001fb8:	e7fe      	b.n	8001fb8 <ADC1_IRQHandler>

08001fba <NMI_Handler>:
  * @brief  This function handles NMI exception.
  * @param  None
  * @retval None
  */
void NMI_Handler(void)
{
 8001fba:	b480      	push	{r7}
 8001fbc:	af00      	add	r7, sp, #0
}
 8001fbe:	bf00      	nop
 8001fc0:	46bd      	mov	sp, r7
 8001fc2:	bc80      	pop	{r7}
 8001fc4:	4770      	bx	lr

08001fc6 <HardFault_Handler>:
  * @brief  This function handles Hard Fault exception.
  * @param  None
  * @retval None
  */
void HardFault_Handler(void)
{
 8001fc6:	b480      	push	{r7}
 8001fc8:	af00      	add	r7, sp, #0
  /* Go to infinite loop when Hard Fault exception occurs */
  while (1)
 8001fca:	e7fe      	b.n	8001fca <HardFault_Handler+0x4>

08001fcc <MemManage_Handler>:
  * @brief  This function handles Memory Manage exception.
  * @param  None
  * @retval None
  */
void MemManage_Handler(void)
{
 8001fcc:	b480      	push	{r7}
 8001fce:	af00      	add	r7, sp, #0
  /* Go to infinite loop when Memory Manage exception occurs */
  while (1)
 8001fd0:	e7fe      	b.n	8001fd0 <MemManage_Handler+0x4>

08001fd2 <BusFault_Handler>:
  * @brief  This function handles Bus Fault exception.
  * @param  None
  * @retval None
  */
void BusFault_Handler(void)
{
 8001fd2:	b480      	push	{r7}
 8001fd4:	af00      	add	r7, sp, #0
  /* Go to infinite loop when Bus Fault exception occurs */
  while (1)
 8001fd6:	e7fe      	b.n	8001fd6 <BusFault_Handler+0x4>

08001fd8 <UsageFault_Handler>:
  * @brief  This function handles Usage Fault exception.
  * @param  None
  * @retval None
  */
void UsageFault_Handler(void)
{
 8001fd8:	b480      	push	{r7}
 8001fda:	af00      	add	r7, sp, #0
  /* Go to infinite loop when Usage Fault exception occurs */
  while (1)
 8001fdc:	e7fe      	b.n	8001fdc <UsageFault_Handler+0x4>

08001fde <SVC_Handler>:
  * @brief  This function handles SVCall exception.
  * @param  None
  * @retval None
  */
void SVC_Handler(void)
{
 8001fde:	b480      	push	{r7}
 8001fe0:	af00      	add	r7, sp, #0
}
 8001fe2:	bf00      	nop
 8001fe4:	46bd      	mov	sp, r7
 8001fe6:	bc80      	pop	{r7}
 8001fe8:	4770      	bx	lr

08001fea <DebugMon_Handler>:
  * @brief  This function handles Debug Monitor exception.
  * @param  None
  * @retval None
  */
void DebugMon_Handler(void)
{
 8001fea:	b480      	push	{r7}
 8001fec:	af00      	add	r7, sp, #0
}
 8001fee:	bf00      	nop
 8001ff0:	46bd      	mov	sp, r7
 8001ff2:	bc80      	pop	{r7}
 8001ff4:	4770      	bx	lr

08001ff6 <PendSV_Handler>:
  * @brief  This function handles PendSVC exception.
  * @param  None
  * @retval None
  */
void PendSV_Handler(void)
{
 8001ff6:	b480      	push	{r7}
 8001ff8:	af00      	add	r7, sp, #0
}
 8001ffa:	bf00      	nop
 8001ffc:	46bd      	mov	sp, r7
 8001ffe:	bc80      	pop	{r7}
 8002000:	4770      	bx	lr

08002002 <SysTick_Handler>:
  * @brief  This function handles SysTick Handler.
  * @param  None
  * @retval None
  */
void SysTick_Handler(void)
{
 8002002:	b480      	push	{r7}
 8002004:	af00      	add	r7, sp, #0
}
 8002006:	bf00      	nop
 8002008:	46bd      	mov	sp, r7
 800200a:	bc80      	pop	{r7}
 800200c:	4770      	bx	lr
	...

08002010 <SystemInit>:
  * @note   This function should be used only after reset.
  * @param  None
  * @retval None
  */
void SystemInit (void)
{
 8002010:	b580      	push	{r7, lr}
 8002012:	af00      	add	r7, sp, #0
  /* Reset the RCC clock configuration to the default reset state(for debug purpose) */
  /* Set HSION bit */
  RCC->CR |= (uint32_t)0x00000001;
 8002014:	4a17      	ldr	r2, [pc, #92]	; (8002074 <SystemInit+0x64>)
 8002016:	4b17      	ldr	r3, [pc, #92]	; (8002074 <SystemInit+0x64>)
 8002018:	681b      	ldr	r3, [r3, #0]
 800201a:	f043 0301 	orr.w	r3, r3, #1
 800201e:	6013      	str	r3, [r2, #0]

  /* Reset SW, HPRE, PPRE1, PPRE2, ADCPRE and MCO bits */
#ifndef STM32F10X_CL
  RCC->CFGR &= (uint32_t)0xF8FF0000;
 8002020:	4914      	ldr	r1, [pc, #80]	; (8002074 <SystemInit+0x64>)
 8002022:	4b14      	ldr	r3, [pc, #80]	; (8002074 <SystemInit+0x64>)
 8002024:	685a      	ldr	r2, [r3, #4]
 8002026:	4b14      	ldr	r3, [pc, #80]	; (8002078 <SystemInit+0x68>)
 8002028:	4013      	ands	r3, r2
 800202a:	604b      	str	r3, [r1, #4]
#else
  RCC->CFGR &= (uint32_t)0xF0FF0000;
#endif /* STM32F10X_CL */   
  
  /* Reset HSEON, CSSON and PLLON bits */
  RCC->CR &= (uint32_t)0xFEF6FFFF;
 800202c:	4a11      	ldr	r2, [pc, #68]	; (8002074 <SystemInit+0x64>)
 800202e:	4b11      	ldr	r3, [pc, #68]	; (8002074 <SystemInit+0x64>)
 8002030:	681b      	ldr	r3, [r3, #0]
 8002032:	f023 7384 	bic.w	r3, r3, #17301504	; 0x1080000
 8002036:	f423 3380 	bic.w	r3, r3, #65536	; 0x10000
 800203a:	6013      	str	r3, [r2, #0]

  /* Reset HSEBYP bit */
  RCC->CR &= (uint32_t)0xFFFBFFFF;
 800203c:	4a0d      	ldr	r2, [pc, #52]	; (8002074 <SystemInit+0x64>)
 800203e:	4b0d      	ldr	r3, [pc, #52]	; (8002074 <SystemInit+0x64>)
 8002040:	681b      	ldr	r3, [r3, #0]
 8002042:	f423 2380 	bic.w	r3, r3, #262144	; 0x40000
 8002046:	6013      	str	r3, [r2, #0]

  /* Reset PLLSRC, PLLXTPRE, PLLMUL and USBPRE/OTGFSPRE bits */
  RCC->CFGR &= (uint32_t)0xFF80FFFF;
 8002048:	4a0a      	ldr	r2, [pc, #40]	; (8002074 <SystemInit+0x64>)
 800204a:	4b0a      	ldr	r3, [pc, #40]	; (8002074 <SystemInit+0x64>)
 800204c:	685b      	ldr	r3, [r3, #4]
 800204e:	f423 03fe 	bic.w	r3, r3, #8323072	; 0x7f0000
 8002052:	6053      	str	r3, [r2, #4]

  /* Reset CFGR2 register */
  RCC->CFGR2 = 0x00000000;
#elif defined (STM32F10X_LD_VL) || defined (STM32F10X_MD_VL) || (defined STM32F10X_HD_VL)
  /* Disable all interrupts and clear pending bits  */
  RCC->CIR = 0x009F0000;
 8002054:	4b07      	ldr	r3, [pc, #28]	; (8002074 <SystemInit+0x64>)
 8002056:	f44f 021f 	mov.w	r2, #10420224	; 0x9f0000
 800205a:	609a      	str	r2, [r3, #8]

  /* Reset CFGR2 register */
  RCC->CFGR2 = 0x00000000;      
 800205c:	4b05      	ldr	r3, [pc, #20]	; (8002074 <SystemInit+0x64>)
 800205e:	2200      	movs	r2, #0
 8002060:	62da      	str	r2, [r3, #44]	; 0x2c
  #endif /* DATA_IN_ExtSRAM */
#endif 

  /* Configure the System clock frequency, HCLK, PCLK2 and PCLK1 prescalers */
  /* Configure the Flash Latency cycles and enable prefetch buffer */
  SetSysClock();
 8002062:	f000 f80d 	bl	8002080 <SetSysClock>

#ifdef VECT_TAB_SRAM
  SCB->VTOR = SRAM_BASE | VECT_TAB_OFFSET; /* Vector Table Relocation in Internal SRAM. */
#else
  SCB->VTOR = FLASH_BASE | VECT_TAB_OFFSET; /* Vector Table Relocation in Internal FLASH. */
 8002066:	4b05      	ldr	r3, [pc, #20]	; (800207c <SystemInit+0x6c>)
 8002068:	f04f 6200 	mov.w	r2, #134217728	; 0x8000000
 800206c:	609a      	str	r2, [r3, #8]
#endif 
}
 800206e:	bf00      	nop
 8002070:	bd80      	pop	{r7, pc}
 8002072:	bf00      	nop
 8002074:	40021000 	.word	0x40021000
 8002078:	f8ff0000 	.word	0xf8ff0000
 800207c:	e000ed00 	.word	0xe000ed00

08002080 <SetSysClock>:
  * @brief  Configures the System clock frequency, HCLK, PCLK2 and PCLK1 prescalers.
  * @param  None
  * @retval None
  */
static void SetSysClock(void)
{
 8002080:	b580      	push	{r7, lr}
 8002082:	af00      	add	r7, sp, #0
#ifdef SYSCLK_FREQ_HSE
  SetSysClockToHSE();
#elif defined SYSCLK_FREQ_24MHz
  SetSysClockTo24();
 8002084:	f000 f802 	bl	800208c <SetSysClockTo24>
  SetSysClockTo72();
#endif
 
 /* If none of the define above is enabled, the HSI is used as System clock
    source (default after reset) */ 
}
 8002088:	bf00      	nop
 800208a:	bd80      	pop	{r7, pc}

0800208c <SetSysClockTo24>:
  * @note   This function should be used only after reset.
  * @param  None
  * @retval None
  */
static void SetSysClockTo24(void)
{
 800208c:	b480      	push	{r7}
 800208e:	b083      	sub	sp, #12
 8002090:	af00      	add	r7, sp, #0
  __IO uint32_t StartUpCounter = 0, HSEStatus = 0;
 8002092:	2300      	movs	r3, #0
 8002094:	607b      	str	r3, [r7, #4]
 8002096:	2300      	movs	r3, #0
 8002098:	603b      	str	r3, [r7, #0]
  
  /* SYSCLK, HCLK, PCLK2 and PCLK1 configuration ---------------------------*/    
  /* Enable HSE */    
  RCC->CR |= ((uint32_t)RCC_CR_HSEON);
 800209a:	4a30      	ldr	r2, [pc, #192]	; (800215c <SetSysClockTo24+0xd0>)
 800209c:	4b2f      	ldr	r3, [pc, #188]	; (800215c <SetSysClockTo24+0xd0>)
 800209e:	681b      	ldr	r3, [r3, #0]
 80020a0:	f443 3380 	orr.w	r3, r3, #65536	; 0x10000
 80020a4:	6013      	str	r3, [r2, #0]
 
  /* Wait till HSE is ready and if Time out is reached exit */
  do
  {
    HSEStatus = RCC->CR & RCC_CR_HSERDY;
 80020a6:	4b2d      	ldr	r3, [pc, #180]	; (800215c <SetSysClockTo24+0xd0>)
 80020a8:	681b      	ldr	r3, [r3, #0]
 80020aa:	f403 3300 	and.w	r3, r3, #131072	; 0x20000
 80020ae:	603b      	str	r3, [r7, #0]
    StartUpCounter++;  
 80020b0:	687b      	ldr	r3, [r7, #4]
 80020b2:	3301      	adds	r3, #1
 80020b4:	607b      	str	r3, [r7, #4]
  } while((HSEStatus == 0) && (StartUpCounter != HSE_STARTUP_TIMEOUT));
 80020b6:	683b      	ldr	r3, [r7, #0]
 80020b8:	2b00      	cmp	r3, #0
 80020ba:	d103      	bne.n	80020c4 <SetSysClockTo24+0x38>
 80020bc:	687b      	ldr	r3, [r7, #4]
 80020be:	f5b3 6fa0 	cmp.w	r3, #1280	; 0x500
 80020c2:	d1f0      	bne.n	80020a6 <SetSysClockTo24+0x1a>

  if ((RCC->CR & RCC_CR_HSERDY) != RESET)
 80020c4:	4b25      	ldr	r3, [pc, #148]	; (800215c <SetSysClockTo24+0xd0>)
 80020c6:	681b      	ldr	r3, [r3, #0]
 80020c8:	f403 3300 	and.w	r3, r3, #131072	; 0x20000
 80020cc:	2b00      	cmp	r3, #0
 80020ce:	d002      	beq.n	80020d6 <SetSysClockTo24+0x4a>
  {
    HSEStatus = (uint32_t)0x01;
 80020d0:	2301      	movs	r3, #1
 80020d2:	603b      	str	r3, [r7, #0]
 80020d4:	e001      	b.n	80020da <SetSysClockTo24+0x4e>
  }
  else
  {
    HSEStatus = (uint32_t)0x00;
 80020d6:	2300      	movs	r3, #0
 80020d8:	603b      	str	r3, [r7, #0]
  }  

  if (HSEStatus == (uint32_t)0x01)
 80020da:	683b      	ldr	r3, [r7, #0]
 80020dc:	2b01      	cmp	r3, #1
 80020de:	d137      	bne.n	8002150 <SetSysClockTo24+0xc4>
    FLASH->ACR &= (uint32_t)((uint32_t)~FLASH_ACR_LATENCY);
    FLASH->ACR |= (uint32_t)FLASH_ACR_LATENCY_0;    
#endif
 
    /* HCLK = SYSCLK */
    RCC->CFGR |= (uint32_t)RCC_CFGR_HPRE_DIV1;
 80020e0:	4a1e      	ldr	r2, [pc, #120]	; (800215c <SetSysClockTo24+0xd0>)
 80020e2:	4b1e      	ldr	r3, [pc, #120]	; (800215c <SetSysClockTo24+0xd0>)
 80020e4:	685b      	ldr	r3, [r3, #4]
 80020e6:	6053      	str	r3, [r2, #4]
      
    /* PCLK2 = HCLK */
    RCC->CFGR |= (uint32_t)RCC_CFGR_PPRE2_DIV1;
 80020e8:	4a1c      	ldr	r2, [pc, #112]	; (800215c <SetSysClockTo24+0xd0>)
 80020ea:	4b1c      	ldr	r3, [pc, #112]	; (800215c <SetSysClockTo24+0xd0>)
 80020ec:	685b      	ldr	r3, [r3, #4]
 80020ee:	6053      	str	r3, [r2, #4]
    
    /* PCLK1 = HCLK */
    RCC->CFGR |= (uint32_t)RCC_CFGR_PPRE1_DIV1;
 80020f0:	4a1a      	ldr	r2, [pc, #104]	; (800215c <SetSysClockTo24+0xd0>)
 80020f2:	4b1a      	ldr	r3, [pc, #104]	; (800215c <SetSysClockTo24+0xd0>)
 80020f4:	685b      	ldr	r3, [r3, #4]
 80020f6:	6053      	str	r3, [r2, #4]
    while((RCC->CR & RCC_CR_PLL2RDY) == 0)
    {
    }   
#elif defined (STM32F10X_LD_VL) || defined (STM32F10X_MD_VL) || defined (STM32F10X_HD_VL)
    /*  PLL configuration:  = (HSE / 2) * 6 = 24 MHz */
    RCC->CFGR &= (uint32_t)((uint32_t)~(RCC_CFGR_PLLSRC | RCC_CFGR_PLLXTPRE | RCC_CFGR_PLLMULL));
 80020f8:	4a18      	ldr	r2, [pc, #96]	; (800215c <SetSysClockTo24+0xd0>)
 80020fa:	4b18      	ldr	r3, [pc, #96]	; (800215c <SetSysClockTo24+0xd0>)
 80020fc:	685b      	ldr	r3, [r3, #4]
 80020fe:	f423 137c 	bic.w	r3, r3, #4128768	; 0x3f0000
 8002102:	6053      	str	r3, [r2, #4]
    RCC->CFGR |= (uint32_t)(RCC_CFGR_PLLSRC_PREDIV1 | RCC_CFGR_PLLXTPRE_PREDIV1_Div2 | RCC_CFGR_PLLMULL6);
 8002104:	4a15      	ldr	r2, [pc, #84]	; (800215c <SetSysClockTo24+0xd0>)
 8002106:	4b15      	ldr	r3, [pc, #84]	; (800215c <SetSysClockTo24+0xd0>)
 8002108:	685b      	ldr	r3, [r3, #4]
 800210a:	f443 1398 	orr.w	r3, r3, #1245184	; 0x130000
 800210e:	6053      	str	r3, [r2, #4]
    RCC->CFGR &= (uint32_t)((uint32_t)~(RCC_CFGR_PLLSRC | RCC_CFGR_PLLXTPRE | RCC_CFGR_PLLMULL));
    RCC->CFGR |= (uint32_t)(RCC_CFGR_PLLSRC_HSE | RCC_CFGR_PLLXTPRE_HSE_Div2 | RCC_CFGR_PLLMULL6);
#endif /* STM32F10X_CL */

    /* Enable PLL */
    RCC->CR |= RCC_CR_PLLON;
 8002110:	4a12      	ldr	r2, [pc, #72]	; (800215c <SetSysClockTo24+0xd0>)
 8002112:	4b12      	ldr	r3, [pc, #72]	; (800215c <SetSysClockTo24+0xd0>)
 8002114:	681b      	ldr	r3, [r3, #0]
 8002116:	f043 7380 	orr.w	r3, r3, #16777216	; 0x1000000
 800211a:	6013      	str	r3, [r2, #0]

    /* Wait till PLL is ready */
    while((RCC->CR & RCC_CR_PLLRDY) == 0)
 800211c:	bf00      	nop
 800211e:	4b0f      	ldr	r3, [pc, #60]	; (800215c <SetSysClockTo24+0xd0>)
 8002120:	681b      	ldr	r3, [r3, #0]
 8002122:	f003 7300 	and.w	r3, r3, #33554432	; 0x2000000
 8002126:	2b00      	cmp	r3, #0
 8002128:	d0f9      	beq.n	800211e <SetSysClockTo24+0x92>
    {
    }

    /* Select PLL as system clock source */
    RCC->CFGR &= (uint32_t)((uint32_t)~(RCC_CFGR_SW));
 800212a:	4a0c      	ldr	r2, [pc, #48]	; (800215c <SetSysClockTo24+0xd0>)
 800212c:	4b0b      	ldr	r3, [pc, #44]	; (800215c <SetSysClockTo24+0xd0>)
 800212e:	685b      	ldr	r3, [r3, #4]
 8002130:	f023 0303 	bic.w	r3, r3, #3
 8002134:	6053      	str	r3, [r2, #4]
    RCC->CFGR |= (uint32_t)RCC_CFGR_SW_PLL;    
 8002136:	4a09      	ldr	r2, [pc, #36]	; (800215c <SetSysClockTo24+0xd0>)
 8002138:	4b08      	ldr	r3, [pc, #32]	; (800215c <SetSysClockTo24+0xd0>)
 800213a:	685b      	ldr	r3, [r3, #4]
 800213c:	f043 0302 	orr.w	r3, r3, #2
 8002140:	6053      	str	r3, [r2, #4]

    /* Wait till PLL is used as system clock source */
    while ((RCC->CFGR & (uint32_t)RCC_CFGR_SWS) != (uint32_t)0x08)
 8002142:	bf00      	nop
 8002144:	4b05      	ldr	r3, [pc, #20]	; (800215c <SetSysClockTo24+0xd0>)
 8002146:	685b      	ldr	r3, [r3, #4]
 8002148:	f003 030c 	and.w	r3, r3, #12
 800214c:	2b08      	cmp	r3, #8
 800214e:	d1f9      	bne.n	8002144 <SetSysClockTo24+0xb8>
  }
  else
  { /* If HSE fails to start-up, the application will have wrong clock 
         configuration. User can add here some code to deal with this error */
  } 
}
 8002150:	bf00      	nop
 8002152:	370c      	adds	r7, #12
 8002154:	46bd      	mov	sp, r7
 8002156:	bc80      	pop	{r7}
 8002158:	4770      	bx	lr
 800215a:	bf00      	nop
 800215c:	40021000 	.word	0x40021000

08002160 <TIM3_IRQHandler>:
volatile uint8_t timeOutTimerAlarmStatus=0;



void TIM3_IRQHandler(void)
{
 8002160:	b580      	push	{r7, lr}
 8002162:	af00      	add	r7, sp, #0
    if(TIM_GetITStatus(TIM3, TIM_IT_Update) != RESET)
 8002164:	2101      	movs	r1, #1
 8002166:	4811      	ldr	r0, [pc, #68]	; (80021ac <TIM3_IRQHandler+0x4c>)
 8002168:	f7ff f9d3 	bl	8001512 <TIM_GetITStatus>
 800216c:	4603      	mov	r3, r0
 800216e:	2b00      	cmp	r3, #0
 8002170:	d015      	beq.n	800219e <TIM3_IRQHandler+0x3e>
    {
    	elapsed_ms++;
 8002172:	4b0f      	ldr	r3, [pc, #60]	; (80021b0 <TIM3_IRQHandler+0x50>)
 8002174:	681b      	ldr	r3, [r3, #0]
 8002176:	3301      	adds	r3, #1
 8002178:	4a0d      	ldr	r2, [pc, #52]	; (80021b0 <TIM3_IRQHandler+0x50>)
 800217a:	6013      	str	r3, [r2, #0]
    	if(timeOutTimerStatus == 1)
 800217c:	4b0d      	ldr	r3, [pc, #52]	; (80021b4 <TIM3_IRQHandler+0x54>)
 800217e:	781b      	ldrb	r3, [r3, #0]
 8002180:	b2db      	uxtb	r3, r3
 8002182:	2b01      	cmp	r3, #1
 8002184:	d10b      	bne.n	800219e <TIM3_IRQHandler+0x3e>
    	{
    		if((elapsed_ms - timeOutTimerStartTime) > timeOutTimerAlarmTime)
 8002186:	4b0a      	ldr	r3, [pc, #40]	; (80021b0 <TIM3_IRQHandler+0x50>)
 8002188:	681a      	ldr	r2, [r3, #0]
 800218a:	4b0b      	ldr	r3, [pc, #44]	; (80021b8 <TIM3_IRQHandler+0x58>)
 800218c:	681b      	ldr	r3, [r3, #0]
 800218e:	1ad2      	subs	r2, r2, r3
 8002190:	4b0a      	ldr	r3, [pc, #40]	; (80021bc <TIM3_IRQHandler+0x5c>)
 8002192:	681b      	ldr	r3, [r3, #0]
 8002194:	429a      	cmp	r2, r3
 8002196:	d902      	bls.n	800219e <TIM3_IRQHandler+0x3e>
    			timeOutTimerAlarmStatus = 1;
 8002198:	4b09      	ldr	r3, [pc, #36]	; (80021c0 <TIM3_IRQHandler+0x60>)
 800219a:	2201      	movs	r2, #1
 800219c:	701a      	strb	r2, [r3, #0]
    	}
   }

    TIM_ClearITPendingBit(TIM3, TIM_IT_Update);
 800219e:	2101      	movs	r1, #1
 80021a0:	4802      	ldr	r0, [pc, #8]	; (80021ac <TIM3_IRQHandler+0x4c>)
 80021a2:	f7ff f9df 	bl	8001564 <TIM_ClearITPendingBit>
}
 80021a6:	bf00      	nop
 80021a8:	bd80      	pop	{r7, pc}
 80021aa:	bf00      	nop
 80021ac:	40000400 	.word	0x40000400
 80021b0:	20000040 	.word	0x20000040
 80021b4:	20000044 	.word	0x20000044
 80021b8:	2000004c 	.word	0x2000004c
 80021bc:	20000048 	.word	0x20000048
 80021c0:	20000050 	.word	0x20000050

080021c4 <timer3_init>:

void timer3_init(void)
{
 80021c4:	b580      	push	{r7, lr}
 80021c6:	b084      	sub	sp, #16
 80021c8:	af00      	add	r7, sp, #0
	RCC_APB1PeriphClockCmd(RCC_APB1Periph_TIM3, ENABLE);
 80021ca:	2101      	movs	r1, #1
 80021cc:	2002      	movs	r0, #2
 80021ce:	f7fe fe33 	bl	8000e38 <RCC_APB1PeriphClockCmd>

	//configure timer 3 interrupt
	NVIC_InitTypeDef nvicStructure;
	nvicStructure.NVIC_IRQChannel = TIM3_IRQn;
 80021d2:	231d      	movs	r3, #29
 80021d4:	733b      	strb	r3, [r7, #12]
	nvicStructure.NVIC_IRQChannelPreemptionPriority = 0;
 80021d6:	2300      	movs	r3, #0
 80021d8:	737b      	strb	r3, [r7, #13]
	nvicStructure.NVIC_IRQChannelSubPriority = 1;
 80021da:	2301      	movs	r3, #1
 80021dc:	73bb      	strb	r3, [r7, #14]
	nvicStructure.NVIC_IRQChannelCmd = ENABLE;
 80021de:	2301      	movs	r3, #1
 80021e0:	73fb      	strb	r3, [r7, #15]
	NVIC_Init(&nvicStructure);
 80021e2:	f107 030c 	add.w	r3, r7, #12
 80021e6:	4618      	mov	r0, r3
 80021e8:	f7fe fa96 	bl	8000718 <NVIC_Init>
	 * interrupt.
	 *
	 * TIM_Period is actually auto reload register(ARR).
	 */
	TIM_TimeBaseInitTypeDef timerInitStructure;
	timerInitStructure.TIM_Prescaler = 2400-1;
 80021ec:	f640 135f 	movw	r3, #2399	; 0x95f
 80021f0:	803b      	strh	r3, [r7, #0]
	timerInitStructure.TIM_CounterMode = TIM_CounterMode_Up;
 80021f2:	2300      	movs	r3, #0
 80021f4:	807b      	strh	r3, [r7, #2]
	timerInitStructure.TIM_Period = 10-1;
 80021f6:	2309      	movs	r3, #9
 80021f8:	80bb      	strh	r3, [r7, #4]
	timerInitStructure.TIM_ClockDivision = TIM_CKD_DIV1;
 80021fa:	2300      	movs	r3, #0
 80021fc:	80fb      	strh	r3, [r7, #6]
	timerInitStructure.TIM_RepetitionCounter = 0;
 80021fe:	2300      	movs	r3, #0
 8002200:	723b      	strb	r3, [r7, #8]
	TIM_TimeBaseInit(TIM3, &timerInitStructure);
 8002202:	463b      	mov	r3, r7
 8002204:	4619      	mov	r1, r3
 8002206:	4808      	ldr	r0, [pc, #32]	; (8002228 <timer3_init+0x64>)
 8002208:	f7fe fe34 	bl	8000e74 <TIM_TimeBaseInit>

	TIM_ITConfig(TIM3, TIM_IT_Update , ENABLE);
 800220c:	2201      	movs	r2, #1
 800220e:	2101      	movs	r1, #1
 8002210:	4805      	ldr	r0, [pc, #20]	; (8002228 <timer3_init+0x64>)
 8002212:	f7ff f8cc 	bl	80013ae <TIM_ITConfig>
	TIM_Cmd(TIM3, ENABLE);
 8002216:	2101      	movs	r1, #1
 8002218:	4803      	ldr	r0, [pc, #12]	; (8002228 <timer3_init+0x64>)
 800221a:	f7ff f8a9 	bl	8001370 <TIM_Cmd>
}
 800221e:	bf00      	nop
 8002220:	3710      	adds	r7, #16
 8002222:	46bd      	mov	sp, r7
 8002224:	bd80      	pop	{r7, pc}
 8002226:	bf00      	nop
 8002228:	40000400 	.word	0x40000400

0800222c <motors_pwm_init>:

void motors_pwm_init(void)
{
 800222c:	b580      	push	{r7, lr}
 800222e:	b088      	sub	sp, #32
 8002230:	af00      	add	r7, sp, #0
	TIM_TimeBaseInitTypeDef  TIM_TimeBaseStructure;
	TIM_OCInitTypeDef  TIM_OCInitStructure;
	GPIO_InitTypeDef GPIO_InitStructure;

	RCC_APB1PeriphClockCmd(RCC_APB1Periph_TIM2, ENABLE);
 8002232:	2101      	movs	r1, #1
 8002234:	2001      	movs	r0, #1
 8002236:	f7fe fdff 	bl	8000e38 <RCC_APB1PeriphClockCmd>
	/* GPIOA and GPIOB clock enable */
	RCC_APB2PeriphClockCmd(RCC_APB2Periph_GPIOA | RCC_APB2Periph_AFIO, ENABLE);
 800223a:	2101      	movs	r1, #1
 800223c:	2005      	movs	r0, #5
 800223e:	f7fe fddd 	bl	8000dfc <RCC_APB2PeriphClockCmd>

	GPIO_InitStructure.GPIO_Pin =  GPIO_Pin_0 | GPIO_Pin_1 | GPIO_Pin_2 | GPIO_Pin_3;
 8002242:	230f      	movs	r3, #15
 8002244:	803b      	strh	r3, [r7, #0]
	GPIO_InitStructure.GPIO_Mode = GPIO_Mode_AF_PP;
 8002246:	2318      	movs	r3, #24
 8002248:	70fb      	strb	r3, [r7, #3]
	GPIO_InitStructure.GPIO_Speed = GPIO_Speed_50MHz;
 800224a:	2303      	movs	r3, #3
 800224c:	70bb      	strb	r3, [r7, #2]
	GPIO_Init(GPIOA, &GPIO_InitStructure);
 800224e:	463b      	mov	r3, r7
 8002250:	4619      	mov	r1, r3
 8002252:	4830      	ldr	r0, [pc, #192]	; (8002314 <motors_pwm_init+0xe8>)
 8002254:	f7fe fac2 	bl	80007dc <GPIO_Init>

	TIM_TimeBaseStructure.TIM_Period = MOTOR_TIM_ARR_REG_VAL;
 8002258:	23c7      	movs	r3, #199	; 0xc7
 800225a:	833b      	strh	r3, [r7, #24]
	TIM_TimeBaseStructure.TIM_Prescaler = MOTOR_TIM_PRESCALER_VAL;
 800225c:	f640 135f 	movw	r3, #2399	; 0x95f
 8002260:	82bb      	strh	r3, [r7, #20]
	TIM_TimeBaseStructure.TIM_ClockDivision = TIM_CKD_DIV1;
 8002262:	2300      	movs	r3, #0
 8002264:	837b      	strh	r3, [r7, #26]
	TIM_TimeBaseStructure.TIM_CounterMode = TIM_CounterMode_Up;
 8002266:	2300      	movs	r3, #0
 8002268:	82fb      	strh	r3, [r7, #22]
	TIM_TimeBaseInit(TIM2, &TIM_TimeBaseStructure);
 800226a:	f107 0314 	add.w	r3, r7, #20
 800226e:	4619      	mov	r1, r3
 8002270:	f04f 4080 	mov.w	r0, #1073741824	; 0x40000000
 8002274:	f7fe fdfe 	bl	8000e74 <TIM_TimeBaseInit>

	/* PWM1 Mode configuration: Channel1 */
	TIM_OCInitStructure.TIM_OCMode = TIM_OCMode_PWM1;
 8002278:	2360      	movs	r3, #96	; 0x60
 800227a:	80bb      	strh	r3, [r7, #4]
	TIM_OCInitStructure.TIM_OutputState = TIM_OutputState_Enable;
 800227c:	2301      	movs	r3, #1
 800227e:	80fb      	strh	r3, [r7, #6]
	TIM_OCInitStructure.TIM_Pulse = 0;
 8002280:	2300      	movs	r3, #0
 8002282:	817b      	strh	r3, [r7, #10]
	TIM_OCInitStructure.TIM_OCPolarity = TIM_OCPolarity_High;
 8002284:	2300      	movs	r3, #0
 8002286:	81bb      	strh	r3, [r7, #12]
	TIM_OC1Init(TIM2, &TIM_OCInitStructure);
 8002288:	1d3b      	adds	r3, r7, #4
 800228a:	4619      	mov	r1, r3
 800228c:	f04f 4080 	mov.w	r0, #1073741824	; 0x40000000
 8002290:	f7fe fe6c 	bl	8000f6c <TIM_OC1Init>
	TIM_OC1PreloadConfig(TIM2, TIM_OCPreload_Enable);
 8002294:	2108      	movs	r1, #8
 8002296:	f04f 4080 	mov.w	r0, #1073741824	; 0x40000000
 800229a:	f7ff f8ca 	bl	8001432 <TIM_OC1PreloadConfig>

	/* PWM1 Mode configuration: Channel2 */
	TIM_OCInitStructure.TIM_OutputState = TIM_OutputState_Enable;
 800229e:	2301      	movs	r3, #1
 80022a0:	80fb      	strh	r3, [r7, #6]
	TIM_OCInitStructure.TIM_Pulse = 0;
 80022a2:	2300      	movs	r3, #0
 80022a4:	817b      	strh	r3, [r7, #10]
	TIM_OC2Init(TIM2, &TIM_OCInitStructure);
 80022a6:	1d3b      	adds	r3, r7, #4
 80022a8:	4619      	mov	r1, r3
 80022aa:	f04f 4080 	mov.w	r0, #1073741824	; 0x40000000
 80022ae:	f7fe fee9 	bl	8001084 <TIM_OC2Init>
	TIM_OC2PreloadConfig(TIM2, TIM_OCPreload_Enable);
 80022b2:	2108      	movs	r1, #8
 80022b4:	f04f 4080 	mov.w	r0, #1073741824	; 0x40000000
 80022b8:	f7ff f8d6 	bl	8001468 <TIM_OC2PreloadConfig>

	/* PWM1 Mode configuration: Channel3 */
	TIM_OCInitStructure.TIM_OutputState = TIM_OutputState_Enable;
 80022bc:	2301      	movs	r3, #1
 80022be:	80fb      	strh	r3, [r7, #6]
	TIM_OCInitStructure.TIM_Pulse = 0;
 80022c0:	2300      	movs	r3, #0
 80022c2:	817b      	strh	r3, [r7, #10]
	TIM_OC3Init(TIM2, &TIM_OCInitStructure);
 80022c4:	1d3b      	adds	r3, r7, #4
 80022c6:	4619      	mov	r1, r3
 80022c8:	f04f 4080 	mov.w	r0, #1073741824	; 0x40000000
 80022cc:	f7fe ff62 	bl	8001194 <TIM_OC3Init>
	TIM_OC3PreloadConfig(TIM2, TIM_OCPreload_Enable);
 80022d0:	2108      	movs	r1, #8
 80022d2:	f04f 4080 	mov.w	r0, #1073741824	; 0x40000000
 80022d6:	f7ff f8e4 	bl	80014a2 <TIM_OC3PreloadConfig>

	/* PWM1 Mode configuration: Channel4 */
	TIM_OCInitStructure.TIM_OutputState = TIM_OutputState_Enable;
 80022da:	2301      	movs	r3, #1
 80022dc:	80fb      	strh	r3, [r7, #6]
	TIM_OCInitStructure.TIM_Pulse = 0;
 80022de:	2300      	movs	r3, #0
 80022e0:	817b      	strh	r3, [r7, #10]
	TIM_OC4Init(TIM2, &TIM_OCInitStructure);
 80022e2:	1d3b      	adds	r3, r7, #4
 80022e4:	4619      	mov	r1, r3
 80022e6:	f04f 4080 	mov.w	r0, #1073741824	; 0x40000000
 80022ea:	f7fe ffd9 	bl	80012a0 <TIM_OC4Init>
	TIM_OC4PreloadConfig(TIM2, TIM_OCPreload_Enable);
 80022ee:	2108      	movs	r1, #8
 80022f0:	f04f 4080 	mov.w	r0, #1073741824	; 0x40000000
 80022f4:	f7ff f8f0 	bl	80014d8 <TIM_OC4PreloadConfig>

	TIM_ARRPreloadConfig(TIM2, ENABLE);
 80022f8:	2101      	movs	r1, #1
 80022fa:	f04f 4080 	mov.w	r0, #1073741824	; 0x40000000
 80022fe:	f7ff f879 	bl	80013f4 <TIM_ARRPreloadConfig>
	/* TIM3 enable counter */
	TIM_Cmd(TIM2, ENABLE);
 8002302:	2101      	movs	r1, #1
 8002304:	f04f 4080 	mov.w	r0, #1073741824	; 0x40000000
 8002308:	f7ff f832 	bl	8001370 <TIM_Cmd>
}
 800230c:	bf00      	nop
 800230e:	3720      	adds	r7, #32
 8002310:	46bd      	mov	sp, r7
 8002312:	bd80      	pop	{r7, pc}
 8002314:	40010800 	.word	0x40010800

08002318 <millis>:
	if(channelID == PWM_CHANNEL4)
		TIM_SetCompare4(TIM2, pwm_value);
}

uint32_t millis(void)
{
 8002318:	b480      	push	{r7}
 800231a:	af00      	add	r7, sp, #0
	return elapsed_ms;
 800231c:	4b02      	ldr	r3, [pc, #8]	; (8002328 <millis+0x10>)
 800231e:	681b      	ldr	r3, [r3, #0]
}
 8002320:	4618      	mov	r0, r3
 8002322:	46bd      	mov	sp, r7
 8002324:	bc80      	pop	{r7}
 8002326:	4770      	bx	lr
 8002328:	20000040 	.word	0x20000040

0800232c <delay_ms>:

void delay_ms(uint32_t delay_ms)
{
 800232c:	b580      	push	{r7, lr}
 800232e:	b084      	sub	sp, #16
 8002330:	af00      	add	r7, sp, #0
 8002332:	6078      	str	r0, [r7, #4]
	uint32_t currentTime_ms;
	uint32_t startTime_ms;

	startTime_ms = millis();
 8002334:	f7ff fff0 	bl	8002318 <millis>
 8002338:	60f8      	str	r0, [r7, #12]
	while(1)
	{
		currentTime_ms = millis();
 800233a:	f7ff ffed 	bl	8002318 <millis>
 800233e:	60b8      	str	r0, [r7, #8]
		if((currentTime_ms-startTime_ms)>delay_ms)
 8002340:	68ba      	ldr	r2, [r7, #8]
 8002342:	68fb      	ldr	r3, [r7, #12]
 8002344:	1ad2      	subs	r2, r2, r3
 8002346:	687b      	ldr	r3, [r7, #4]
 8002348:	429a      	cmp	r2, r3
 800234a:	d800      	bhi.n	800234e <delay_ms+0x22>
		currentTime_ms = millis();
 800234c:	e7f5      	b.n	800233a <delay_ms+0xe>
			return ;
 800234e:	bf00      	nop
	}
}
 8002350:	3710      	adds	r7, #16
 8002352:	46bd      	mov	sp, r7
 8002354:	bd80      	pop	{r7, pc}
	...

08002358 <timeout_alarm_set>:

void timeout_alarm_set(uint32_t alarmTime_ms)
{
 8002358:	b580      	push	{r7, lr}
 800235a:	b082      	sub	sp, #8
 800235c:	af00      	add	r7, sp, #0
 800235e:	6078      	str	r0, [r7, #4]
	timeOutTimerStartTime = millis();
 8002360:	f7ff ffda 	bl	8002318 <millis>
 8002364:	4602      	mov	r2, r0
 8002366:	4b07      	ldr	r3, [pc, #28]	; (8002384 <timeout_alarm_set+0x2c>)
 8002368:	601a      	str	r2, [r3, #0]
	timeOutTimerStatus = 1;
 800236a:	4b07      	ldr	r3, [pc, #28]	; (8002388 <timeout_alarm_set+0x30>)
 800236c:	2201      	movs	r2, #1
 800236e:	701a      	strb	r2, [r3, #0]
	timeOutTimerAlarmTime = alarmTime_ms;
 8002370:	4a06      	ldr	r2, [pc, #24]	; (800238c <timeout_alarm_set+0x34>)
 8002372:	687b      	ldr	r3, [r7, #4]
 8002374:	6013      	str	r3, [r2, #0]
	timeOutTimerAlarmStatus = 0;
 8002376:	4b06      	ldr	r3, [pc, #24]	; (8002390 <timeout_alarm_set+0x38>)
 8002378:	2200      	movs	r2, #0
 800237a:	701a      	strb	r2, [r3, #0]
}
 800237c:	bf00      	nop
 800237e:	3708      	adds	r7, #8
 8002380:	46bd      	mov	sp, r7
 8002382:	bd80      	pop	{r7, pc}
 8002384:	2000004c 	.word	0x2000004c
 8002388:	20000044 	.word	0x20000044
 800238c:	20000048 	.word	0x20000048
 8002390:	20000050 	.word	0x20000050

08002394 <timeout_alarm_status_check>:

uint8_t timeout_alarm_status_check(void)
{
 8002394:	b480      	push	{r7}
 8002396:	af00      	add	r7, sp, #0
	return timeOutTimerAlarmStatus;
 8002398:	4b03      	ldr	r3, [pc, #12]	; (80023a8 <timeout_alarm_status_check+0x14>)
 800239a:	781b      	ldrb	r3, [r3, #0]
 800239c:	b2db      	uxtb	r3, r3
}
 800239e:	4618      	mov	r0, r3
 80023a0:	46bd      	mov	sp, r7
 80023a2:	bc80      	pop	{r7}
 80023a4:	4770      	bx	lr
 80023a6:	bf00      	nop
 80023a8:	20000050 	.word	0x20000050

080023ac <timeout_alarm_off>:

void timeout_alarm_off(void)
{
 80023ac:	b480      	push	{r7}
 80023ae:	af00      	add	r7, sp, #0
	timeOutTimerStatus = 0;
 80023b0:	4b04      	ldr	r3, [pc, #16]	; (80023c4 <timeout_alarm_off+0x18>)
 80023b2:	2200      	movs	r2, #0
 80023b4:	701a      	strb	r2, [r3, #0]
	timeOutTimerAlarmStatus = 0;
 80023b6:	4b04      	ldr	r3, [pc, #16]	; (80023c8 <timeout_alarm_off+0x1c>)
 80023b8:	2200      	movs	r2, #0
 80023ba:	701a      	strb	r2, [r3, #0]
}
 80023bc:	bf00      	nop
 80023be:	46bd      	mov	sp, r7
 80023c0:	bc80      	pop	{r7}
 80023c2:	4770      	bx	lr
 80023c4:	20000044 	.word	0x20000044
 80023c8:	20000050 	.word	0x20000050

080023cc <__libc_init_array>:
 80023cc:	b570      	push	{r4, r5, r6, lr}
 80023ce:	2500      	movs	r5, #0
 80023d0:	4e0c      	ldr	r6, [pc, #48]	; (8002404 <__libc_init_array+0x38>)
 80023d2:	4c0d      	ldr	r4, [pc, #52]	; (8002408 <__libc_init_array+0x3c>)
 80023d4:	1ba4      	subs	r4, r4, r6
 80023d6:	10a4      	asrs	r4, r4, #2
 80023d8:	42a5      	cmp	r5, r4
 80023da:	d109      	bne.n	80023f0 <__libc_init_array+0x24>
 80023dc:	f000 f81a 	bl	8002414 <_init>
 80023e0:	2500      	movs	r5, #0
 80023e2:	4e0a      	ldr	r6, [pc, #40]	; (800240c <__libc_init_array+0x40>)
 80023e4:	4c0a      	ldr	r4, [pc, #40]	; (8002410 <__libc_init_array+0x44>)
 80023e6:	1ba4      	subs	r4, r4, r6
 80023e8:	10a4      	asrs	r4, r4, #2
 80023ea:	42a5      	cmp	r5, r4
 80023ec:	d105      	bne.n	80023fa <__libc_init_array+0x2e>
 80023ee:	bd70      	pop	{r4, r5, r6, pc}
 80023f0:	f856 3025 	ldr.w	r3, [r6, r5, lsl #2]
 80023f4:	4798      	blx	r3
 80023f6:	3501      	adds	r5, #1
 80023f8:	e7ee      	b.n	80023d8 <__libc_init_array+0xc>
 80023fa:	f856 3025 	ldr.w	r3, [r6, r5, lsl #2]
 80023fe:	4798      	blx	r3
 8002400:	3501      	adds	r5, #1
 8002402:	e7f2      	b.n	80023ea <__libc_init_array+0x1e>
 8002404:	0800249c 	.word	0x0800249c
 8002408:	0800249c 	.word	0x0800249c
 800240c:	0800249c 	.word	0x0800249c
 8002410:	080024a0 	.word	0x080024a0

08002414 <_init>:
 8002414:	b5f8      	push	{r3, r4, r5, r6, r7, lr}
 8002416:	bf00      	nop
 8002418:	bcf8      	pop	{r3, r4, r5, r6, r7}
 800241a:	bc08      	pop	{r3}
 800241c:	469e      	mov	lr, r3
 800241e:	4770      	bx	lr

08002420 <_fini>:
 8002420:	b5f8      	push	{r3, r4, r5, r6, r7, lr}
 8002422:	bf00      	nop
 8002424:	bcf8      	pop	{r3, r4, r5, r6, r7}
 8002426:	bc08      	pop	{r3}
 8002428:	469e      	mov	lr, r3
 800242a:	4770      	bx	lr
